ccopy_reg
_reconstructor
p0
(c__main__
Collection_object
p1
c__builtin__
object
p2
Ntp3
Rp4
(dp5
S'authore'
p6
(dp7
S'rich-evans'
p8
(dp9
S'sub_reddit'
p10
(dp11
S'2w2s8'
p12
(dp13
S'7tu0ft'
p14
I2
sssS'threads'
p15
(dp16
g14
(lp17
S'dtf8i6u'
p18
aS'dtf9vmc'
p19
asssS'YossarianWWII'
p20
(dp21
g10
(dp22
S'2w2s8'
p23
(dp24
S'7tu0ft'
p25
I2
sssg15
(dp26
g25
(lp27
S'dtfj9w4'
p28
aS'dtfkdtx'
p29
asssS'[deleted]'
p30
(dp31
g10
(dp32
S'2qi27'
p33
(dp34
S'7tiliz'
p35
I2
ssS'2w2s8'
p36
(dp37
S'7tu0ft'
p38
I10
sssg15
(dp39
g35
(lp40
S'dte01e3'
p41
aS'dtfqj0v'
p42
asg38
(lp43
S'dtf8cz2'
p44
aS'dtfc7o9'
p45
aS'dtfdtoz'
p46
aS'dtfef2o'
p47
aS'dtffttj'
p48
aS'dtfhx31'
p49
aS'dtfijdb'
p50
aS'dtfo9bv'
p51
aS'dtfpzqy'
p52
aS'dtfqcvr'
p53
asssS'theres_a_snake_in_me'
p54
(dp55
g10
(dp56
S'2w2s8'
p57
(dp58
S'7tu0ft'
p59
I1
sssg15
(dp60
g59
(lp61
S'dtfblid'
p62
asssS'DeltaBot'
p63
(dp64
g10
(dp65
S'2w2s8'
p66
(dp67
S'7tu0ft'
p68
I2
sssg15
(dp69
g68
(lp70
S'dtfs2oo'
p71
aS'dtfs2px'
p72
asssS'Saefroch'
p73
(dp74
g10
(dp75
S'2qi27'
p76
(dp77
S'7tiliz'
p78
I1
sssg15
(dp79
g78
(lp80
S'dtesohj'
p81
asssS'Ansuz07'
p82
(dp83
g10
(dp84
S'2w2s8'
p85
(dp86
S'7tu0ft'
p87
I1
sssg15
(dp88
g87
(lp89
S'dtfoytz'
p90
asssS'germandiago'
p91
(dp92
g10
(dp93
S'2qi27'
p94
(dp95
S'7tiliz'
p96
I1
sssg15
(dp97
g96
(lp98
S'dtfc7tj'
p99
asssS'Ee11656'
p100
(dp101
g10
(dp102
S'2qi27'
p103
(dp104
S'7tiliz'
p105
I1
sssg15
(dp106
g105
(lp107
S'dte05aj'
p108
asssS'rodrigocfd'
p109
(dp110
g10
(dp111
S'2qi27'
p112
(dp113
S'7tiliz'
p114
I1
sssg15
(dp115
g114
(lp116
S'dten8su'
p117
asssS'hayarms'
p118
(dp119
g10
(dp120
S'2qi27'
p121
(dp122
S'7tiliz'
p123
I1
sssg15
(dp124
g123
(lp125
S'dteii93'
p126
asssS'mpyne'
p127
(dp128
g10
(dp129
S'2qi27'
p130
(dp131
S'7tiliz'
p132
I1
sssg15
(dp133
g132
(lp134
S'dtfr9yr'
p135
asssS'OrphisFlo'
p136
(dp137
g10
(dp138
S'2qi27'
p139
(dp140
S'7tiliz'
p141
I1
sssg15
(dp142
g141
(lp143
S'dtellge'
p144
asssS'Draculea'
p145
(dp146
g10
(dp147
S'2w2s8'
p148
(dp149
S'7tu0ft'
p150
I2
sssg15
(dp151
g150
(lp152
S'dtfoxhg'
p153
aS'dtfqpi7'
p154
asssS'CaptainPassword'
p155
(dp156
g10
(dp157
S'2qioo'
p158
(dp159
S'7tktlm'
p160
I4
sssg15
(dp161
g160
(lp162
S'dte4mxh'
p163
aS'dte5jyr'
p164
aS'dte67xt'
p165
aS'dteabn5'
p166
asssS'Sand_Trout'
p167
(dp168
g10
(dp169
S'2w2s8'
p170
(dp171
S'7tu0ft'
p172
I1
sssg15
(dp173
g172
(lp174
S'dtfhizt'
p175
asssS'fenderkruse'
p176
(dp177
g10
(dp178
S'2w2s8'
p179
(dp180
S'7tu0ft'
p181
I3
sssg15
(dp182
g181
(lp183
S'dtfddx7'
p184
aS'dtffkpn'
p185
aS'dtfqrbm'
p186
asssS'quicknir'
p187
(dp188
g10
(dp189
S'2qi27'
p190
(dp191
S'7tiliz'
p192
I1
sssg15
(dp193
g192
(lp194
S'dtdzy2z'
p195
asssS'4trezz'
p196
(dp197
g10
(dp198
S'2w2s8'
p199
(dp200
S'7tu0ft'
p201
I9
sssg15
(dp202
g201
(lp203
S'dtf76ln'
p204
aS'dtf8f5o'
p205
aS'dtf9izi'
p206
aS'dtfa4j2'
p207
aS'dtfb7qw'
p208
aS'dtfbznu'
p209
aS'dtfc9xp'
p210
aS'dtfdoi0'
p211
aS'dtfed60'
p212
asssS'yyzjertl'
p213
(dp214
g10
(dp215
S'2w2s8'
p216
(dp217
S'7tu0ft'
p218
I4
sssg15
(dp219
g218
(lp220
S'dtf9ygm'
p221
aS'dtfavy2'
p222
aS'dtfgd0k'
p223
aS'dtfisjh'
p224
asssS'IAlsoLikePlutonium'
p225
(dp226
g10
(dp227
S'2qi27'
p228
(dp229
S'7tiliz'
p230
I1
sssg15
(dp231
g230
(lp232
S'dtf0gq7'
p233
asssS'againstmethod'
p234
(dp235
g10
(dp236
S'2qi27'
p237
(dp238
S'7tiliz'
p239
I1
sssg15
(dp240
g239
(lp241
S'dtdy7h9'
p242
asssS'worldeditor'
p243
(dp244
g10
(dp245
S'2w2s8'
p246
(dp247
S'7tu0ft'
p248
I11
sssg15
(dp249
g248
(lp250
S'dtf63hu'
p251
aS'dtf6uga'
p252
aS'dtf7g4i'
p253
aS'dtf7p7d'
p254
aS'dtf95fo'
p255
aS'dtf9p2c'
p256
aS'dtfas2s'
p257
aS'dtfc24v'
p258
aS'dtfcnes'
p259
aS'dtfdtkj'
p260
aS'dtfe0qd'
p261
asssS'aw1621107'
p262
(dp263
g10
(dp264
S'2qi27'
p265
(dp266
S'7tiliz'
p267
I1
sssg15
(dp268
g267
(lp269
S'dtf14j3'
p270
asssS'o11c'
p271
(dp272
g10
(dp273
S'2qi27'
p274
(dp275
S'7tiliz'
p276
I1
sssg15
(dp277
g276
(lp278
S'dte6dgx'
p279
asssS'gracicot'
p280
(dp281
g10
(dp282
S'2qi27'
p283
(dp284
S'7tiliz'
p285
I1
sssg15
(dp286
g285
(lp287
S'dte2mzs'
p288
asssS'ThomasEdmund84'
p289
(dp290
g10
(dp291
S'2w2s8'
p292
(dp293
S'7tu0ft'
p294
I2
sssg15
(dp295
g294
(lp296
S'dtf80m8'
p297
aS'dtfhhvz'
p298
asssS'airflow_matt'
p299
(dp300
g10
(dp301
S'2qi27'
p302
(dp303
S'7tiliz'
p304
I2
sssg15
(dp305
g304
(lp306
S'dtekfng'
p307
aS'dteklsg'
p308
asssS'ReversedGif'
p309
(dp310
g10
(dp311
S'2qi27'
p312
(dp313
S'7tiliz'
p314
I1
sssg15
(dp315
g314
(lp316
S'dte2f0z'
p317
asssS'PreacherJudge'
p318
(dp319
g10
(dp320
S'2w2s8'
p321
(dp322
S'7tu0ft'
p323
I7
sssg15
(dp324
g323
(lp325
S'dtf6ika'
p326
aS'dtf7tug'
p327
aS'dtfbr2l'
p328
aS'dtff2lg'
p329
aS'dtfgvrx'
p330
aS'dtfibm7'
p331
aS'dtflnz7'
p332
asssS'TheThiefMaster'
p333
(dp334
g10
(dp335
S'2qi27'
p336
(dp337
S'7tiliz'
p338
I1
sssg15
(dp339
g338
(lp340
S'dteieqn'
p341
asssS'ZeusThunder369'
p342
(dp343
g10
(dp344
S'2w2s8'
p345
(dp346
S'7tu0ft'
p347
I19
sssg15
(dp348
g347
(lp349
S'dtf6m4h'
p350
aS'dtf6vr0'
p351
aS'dtf71u8'
p352
aS'dtf7inm'
p353
aS'dtf7q59'
p354
aS'dtf7shv'
p355
aS'dtf8wn4'
p356
aS'dtf9v66'
p357
aS'dtfa0lp'
p358
aS'dtfa41s'
p359
aS'dtfaerl'
p360
aS'dtfebiy'
p361
aS'dtfeeqz'
p362
aS'dtfetg6'
p363
aS'dtffmi3'
p364
aS'dtfh8mi'
p365
aS'dtfkmuz'
p366
aS'dtfkox9'
p367
aS'dtfs25l'
p368
asssS'Spackledgoat'
p369
(dp370
g10
(dp371
S'2w2s8'
p372
(dp373
S'7tu0ft'
p374
I1
sssg15
(dp375
g374
(lp376
S'dtfjijn'
p377
asssS'Roflcaust'
p378
(dp379
g10
(dp380
S'2w2s8'
p381
(dp382
S'7tu0ft'
p383
I5
sssg15
(dp384
g383
(lp385
S'dtfao59'
p386
aS'dtfbmgc'
p387
aS'dtfi6cg'
p388
aS'dtfk83q'
p389
aS'dtfkerf'
p390
asssS'serial_crusher'
p391
(dp392
g10
(dp393
S'2w2s8'
p394
(dp395
S'7tu0ft'
p396
I1
sssg15
(dp397
g396
(lp398
S'dtfgj6j'
p399
asssS'Madplato'
p400
(dp401
g10
(dp402
S'2w2s8'
p403
(dp404
S'7tu0ft'
p405
I1
sssg15
(dp406
g405
(lp407
S'dtfevno'
p408
asssS'F-J-W'
p409
(dp410
g10
(dp411
S'2qi27'
p412
(dp413
S'7tiliz'
p414
I1
sssg15
(dp415
g414
(lp416
S'dtdzlv8'
p417
asssS'hikolu3'
p418
(dp419
g10
(dp420
S'2qi27'
p421
(dp422
S'7tiliz'
p423
I1
sssg15
(dp424
g423
(lp425
S'dtekjnj'
p426
asssS'kita5521'
p427
(dp428
g10
(dp429
S'2qioo'
p430
(dp431
S'7tktlm'
p432
I5
sssg15
(dp433
g432
(lp434
S'dtdy7ha'
p435
aS'dte3jw7'
p436
aS'dte5468'
p437
aS'dte57xh'
p438
aS'dte7nxl'
p439
asssS'hgjsusla'
p440
(dp441
g10
(dp442
S'2qi27'
p443
(dp444
S'7tiliz'
p445
I1
sssg15
(dp446
g445
(lp447
S'dteh4mz'
p448
asssS'Godskook'
p449
(dp450
g10
(dp451
S'2w2s8'
p452
(dp453
S'7tu0ft'
p454
I2
sssg15
(dp455
g454
(lp456
S'dtfpz0b'
p457
aS'dtfrda9'
p458
asssS'UNRThrowAway'
p459
(dp460
g10
(dp461
S'2w2s8'
p462
(dp463
S'7tu0ft'
p464
I3
sssg15
(dp465
g464
(lp466
S'dtf5ulb'
p467
aS'dtf7hh1'
p468
aS'dtfb17c'
p469
asssS'zzzztopportal'
p470
(dp471
g10
(dp472
S'2w2s8'
p473
(dp474
S'7tu0ft'
p475
I1
sssg15
(dp476
g475
(lp477
S'dtfhp44'
p478
asssS'imMute'
p479
(dp480
g10
(dp481
S'2qi27'
p482
(dp483
S'7tiliz'
p484
I1
sssg15
(dp485
g484
(lp486
S'dte9vet'
p487
asssS'Crell'
p488
(dp489
g10
(dp490
S'2w2s8'
p491
(dp492
S'7tu0ft'
p493
I1
sssg15
(dp494
g493
(lp495
S'dtflowt'
p496
asssS'21stcenturygulag'
p497
(dp498
g10
(dp499
S'2w2s8'
p500
(dp501
S'7tu0ft'
p502
I1
sssg15
(dp503
g502
(lp504
S'dtfissq'
p505
asssS'tecnofauno'
p506
(dp507
g10
(dp508
S'2qi27'
p509
(dp510
S'7tiliz'
p511
I1
sssg15
(dp512
g511
(lp513
S'dtejn30'
p514
asssS'doom_Oo7'
p515
(dp516
g10
(dp517
S'2qi27'
p518
(dp519
S'7tiliz'
p520
I2
sssg15
(dp521
g520
(lp522
S'dteli6b'
p523
aS'dtelkvx'
p524
asssS'spinicist'
p525
(dp526
g10
(dp527
S'2qi27'
p528
(dp529
S'7tiliz'
p530
I2
sssg15
(dp531
g530
(lp532
S'dtel2nt'
p533
aS'dtepyu3'
p534
asssS'd-frey'
p535
(dp536
g10
(dp537
S'2qi27'
p538
(dp539
S'7tiliz'
p540
I1
sssg15
(dp541
g540
(lp542
S'dtf1k1t'
p543
asssS'blelbach'
p544
(dp545
g10
(dp546
S'2qi27'
p547
(dp548
S'7tiliz'
p549
I1
sssg15
(dp550
g549
(lp551
S'dten4vb'
p552
asssS'tcbrindle'
p553
(dp554
g10
(dp555
S'2qi27'
p556
(dp557
S'7tiliz'
p558
I1
sssg15
(dp559
g558
(lp560
S'dtdzuyu'
p561
asssS'Ixius'
p562
(dp563
g10
(dp564
S'2w2s8'
p565
(dp566
S'7tu0ft'
p567
I2
sssg15
(dp568
g567
(lp569
S'dtfntpg'
p570
aS'dtfrz3s'
p571
asssS'RealNC'
p572
(dp573
g10
(dp574
S'2qi27'
p575
(dp576
S'7tiliz'
p577
I1
sssg15
(dp578
g577
(lp579
S'dteodra'
p580
asssS'isoldasballs'
p581
(dp582
g10
(dp583
S'2w2s8'
p584
(dp585
S'7tu0ft'
p586
I4
sssg15
(dp587
g586
(lp588
S'dtf6zue'
p589
aS'dtf8dvx'
p590
aS'dtfhmcz'
p591
aS'dtfhy6g'
p592
asssS'Socapex'
p593
(dp594
g10
(dp595
S'2qi27'
p596
(dp597
S'7tiliz'
p598
I1
sssg15
(dp599
g598
(lp600
S'dtetsrv'
p601
assssg15
(dp602
g239
(dp603
g308
g0
(c__main__
Node
p604
g2
Ntp605
Rp606
(dp607
S'father'
p608
S'dtdzy2z'
p609
sS'i_id'
p610
c__builtin__
id
p611
sS'data'
p612
(dp613
Vbody
p614
VDevirtualization was hardly the crux of my comment :) Although with LTO and whole program devirtualization I'd expect devirtualization to become more common even for non final virtual method.\u000a\u000aI agree with most of your comment, I just don't see how it applies to socket abstraction (which my original comment was about). Do you really need your socket read to be inlined? What difference does it make compared to the rest of network stack machinery?
p615
sVedited
p616
I00
sVpermalink
p617
V/r/cpp/comments/7tiliz/why_are_headeronly_c_libraries_so_popular/dteklsg/
p618
sVsubreddit_type
p619
Vpublic
p620
sVauthor_flair_css_class
p621
NsVstickied
p622
I00
sVauthor
p623
Vairflow_matt
p624
sVsubreddit
p625
Vcpp
p626
sVauthor_flair_text
p627
NsVcreated_utc
p628
I1517216475
sVsubreddit_id
p629
Vt5_2qi27
p630
sVdistinguished
p631
NsVparent_id
p632
Vt1_dtdzy2z
p633
sVscore
p634
I1
sVis_submitter
p635
I00
sVgilded
p636
I0
sVid
p637
Vdteklsg
p638
sVcan_gild
p639
I01
sVlink_id
p640
Vt3_7tiliz
p641
sVretrieved_on
p642
I1518386588
sVcontroversiality
p643
I0
ssS'descendants'
p644
Nsbsg126
g0
(g604
g2
Ntp645
Rp646
(dp647
g608
S'7tiliz'
p648
sg610
g611
sg612
(dp649
Vbody
p650
VI can\u2019t believe there\u2019s people that compare handling header only libraries with using CMake external project add?\u000a\u000aI mean, it\u2019s obvious how much easier it is to handle the first! You don\u2019t even need a build system at all if you want!\u000a\u000aHeader-only libs have OTHER problems ( like compile time degradation and potential name aliasing, like for example when you add a library and then add another library that includes the first one as a dependency. Example of this GLM and GLI), but their simplicity is absolutely not at question and that\u2019s their obvious selling point.
p651
sVedited
p652
I00
sVpermalink
p653
V/r/cpp/comments/7tiliz/why_are_headeronly_c_libraries_so_popular/dteii93/
p654
sVsubreddit_type
p655
Vpublic
p656
sVauthor_flair_css_class
p657
NsVstickied
p658
I00
sVauthor
p659
Vhayarms
p660
sVsubreddit
p661
Vcpp
p662
sVauthor_flair_text
p663
NsVcreated_utc
p664
I1517211312
sVsubreddit_id
p665
Vt5_2qi27
p666
sVdistinguished
p667
NsVparent_id
p668
Vt3_7tiliz
p669
sVscore
p670
I1
sVis_submitter
p671
I00
sVgilded
p672
I0
sVid
p673
Vdteii93
p674
sVcan_gild
p675
I01
sVlink_id
p676
Vt3_7tiliz
p677
sVretrieved_on
p678
I1518385549
sVcontroversiality
p679
I0
ssg644
Nsbsg195
g0
(g604
g2
Ntp680
Rp681
(dp682
g608
S'dtds5sl'
p683
sg610
g611
sg612
(dp684
Vbody
p685
V&gt; Plus there is devirtualization\u000a\u000aA lot of people throw that around, without realizing how incredibly limited devirtualization actually is in practice. You're not very likely to actually see it unless either `final` is involved (which it's not here; the library is defining an interface so that things can be overriden and final would defeat the whole purpose), or all of the library code between the creation of the derived object (in user code) and calls to the interface (in library code) get inlined (unlikely as this is usually a lot of code).\u000a\u000aAlso, the big cost is not usually direct vs indirect. The big costs are usually a) when you can't inline a small function because it's virtual, you lose many optimizations that don't really work well across function boundaries: const propagation, common subexpression elimination, etc. And b) having to store something by pointer as opposed to inline.\u000a\u000aWhat makes things hard for library writers is that what you are saying is totally reasonable,  and probably applies to most would be end users. But there are probably some for whom it doesn't apply. Some libraries may choose a narrower scope, but all other things being equal a higher quality library will try to target the broadest possible set of use cases.\u000a\u000aAlso, keep in mind: code built with compile time polymoprhism can always be brought back to runtime, but not vice versa. It involves some boilerplate but with extern template and a wrapper  class you can basically recover most of the downsides you're discussing. The reverse is impossible: if the library uses runtime polymoprhism you can never recover the advantages of compile time polymoprhism.
p686
sVedited
p687
I00
sVpermalink
p688
V/r/cpp/comments/7tiliz/why_are_headeronly_c_libraries_so_popular/dtdzy2z/
p689
sVsubreddit_type
p690
Vpublic
p691
sVauthor_flair_css_class
p692
NsVstickied
p693
I00
sVauthor
p694
Vquicknir
p695
sVsubreddit
p696
Vcpp
p697
sVauthor_flair_text
p698
NsVcreated_utc
p699
I1517185987
sVsubreddit_id
p700
Vt5_2qi27
p701
sVdistinguished
p702
NsVparent_id
p703
Vt1_dtds5sl
p704
sVscore
p705
I10
sVis_submitter
p706
I00
sVgilded
p707
I0
sVid
p708
Vdtdzy2z
p709
sVcan_gild
p710
I01
sVlink_id
p711
Vt3_7tiliz
p712
sVretrieved_on
p713
I1518376457
sVcontroversiality
p714
I0
ssg644
(dp715
g308
g606
ssbsg561
g0
(g604
g2
Ntp716
Rp717
(dp718
g608
S'dtda4v8'
p719
sg610
g611
sg612
(dp720
Vbody
p721
VI see where you're coming from, but literally every other mainstream language I can think of (other than C) has interface declarations and definitions together in the same file and people cope with it just fine. I don't see why module-enabled C++ would be any different in this regard?
p722
sVedited
p723
I00
sVpermalink
p724
V/r/cpp/comments/7tiliz/why_are_headeronly_c_libraries_so_popular/dtdzuyu/
p725
sVsubreddit_type
p726
Vpublic
p727
sVauthor_flair_css_class
p728
NsVstickied
p729
I00
sVauthor
p730
Vtcbrindle
p731
sVsubreddit
p732
Vcpp
p733
sVauthor_flair_text
p734
NsVcreated_utc
p735
I1517185885
sVsubreddit_id
p736
Vt5_2qi27
p737
sVdistinguished
p738
NsVparent_id
p739
Vt1_dtda4v8
p740
sVscore
p741
I4
sVis_submitter
p742
I00
sVgilded
p743
I0
sVid
p744
Vdtdzuyu
p745
sVcan_gild
p746
I01
sVlink_id
p747
Vt3_7tiliz
p748
sVretrieved_on
p749
I1518376413
sVcontroversiality
p750
I0
ssg644
Nsbsg601
g0
(g604
g2
Ntp751
Rp752
(dp753
g608
S'dtepyu3'
p754
sg610
g611
sg612
(dp755
Vbody
p756
VI've never personally used it in combination with find_package (or something like that). You might run stage issues. Worth trying out though.
p757
sVedited
p758
I00
sVpermalink
p759
V/r/cpp/comments/7tiliz/why_are_headeronly_c_libraries_so_popular/dtetsrv/
p760
sVsubreddit_type
p761
Vpublic
p762
sVauthor_flair_css_class
p763
NsVstickied
p764
I00
sVauthor
p765
VSocapex
p766
sVsubreddit
p767
Vcpp
p768
sVauthor_flair_text
p769
NsVcreated_utc
p770
I1517235786
sVsubreddit_id
p771
Vt5_2qi27
p772
sVdistinguished
p773
NsVparent_id
p774
Vt1_dtepyu3
p775
sVscore
p776
I2
sVis_submitter
p777
I00
sVgilded
p778
I0
sVid
p779
Vdtetsrv
p780
sVcan_gild
p781
I01
sVlink_id
p782
Vt3_7tiliz
p783
sVretrieved_on
p784
I1518391144
sVcontroversiality
p785
I0
ssg644
Nsbsg533
g0
(g604
g2
Ntp786
Rp787
(dp788
g608
S'dtdy51c'
p789
sg610
g611
sg612
(dp790
Vbody
p791
VThanks for the tip, will check it out.
p792
sVedited
p793
I00
sVpermalink
p794
V/r/cpp/comments/7tiliz/why_are_headeronly_c_libraries_so_popular/dtel2nt/
p795
sVsubreddit_type
p796
Vpublic
p797
sVauthor_flair_css_class
p798
NsVstickied
p799
I00
sVauthor
p800
Vspinicist
p801
sVsubreddit
p802
Vcpp
p803
sVauthor_flair_text
p804
NsVcreated_utc
p805
I1517217731
sVsubreddit_id
p806
Vt5_2qi27
p807
sVdistinguished
p808
NsVparent_id
p809
Vt1_dtdy51c
p810
sVscore
p811
I2
sVis_submitter
p812
I00
sVgilded
p813
I0
sVid
p814
Vdtel2nt
p815
sVcan_gild
p816
I01
sVlink_id
p817
Vt3_7tiliz
p818
sVretrieved_on
p819
I1518386820
sVcontroversiality
p820
I0
ssg644
Nsbsg514
g0
(g604
g2
Ntp821
Rp822
(dp823
g608
S'dtdqhsu'
p824
sg610
g611
sg612
(dp825
Vbody
p826
VI disagree, networking is more often than not I/O-bound. Any overhead a library imposes is hardly significant.
p827
sVedited
p828
I00
sVpermalink
p829
V/r/cpp/comments/7tiliz/why_are_headeronly_c_libraries_so_popular/dtejn30/
p830
sVsubreddit_type
p831
Vpublic
p832
sVauthor_flair_css_class
p833
NsVstickied
p834
I00
sVauthor
p835
Vtecnofauno
p836
sVsubreddit
p837
Vcpp
p838
sVauthor_flair_text
p839
NsVcreated_utc
p840
I1517213990
sVsubreddit_id
p841
Vt5_2qi27
p842
sVdistinguished
p843
NsVparent_id
p844
Vt1_dtdqhsu
p845
sVscore
p846
I5
sVis_submitter
p847
I00
sVgilded
p848
I0
sVid
p849
Vdtejn30
p850
sVcan_gild
p851
I01
sVlink_id
p852
Vt3_7tiliz
p853
sVretrieved_on
p854
I1518386113
sVcontroversiality
p855
I0
ssg644
Nsbsg117
g0
(g604
g2
Ntp856
Rp857
(dp858
g608
S'dtdolyz'
p859
sg610
g611
sg612
(dp860
Vbody
p861
V&gt; Well, sure, question is, how many of those template heave header-only libraries actually have to be template heavy.\u000a\u000aThey have to be template-heavy if this leads to a better design.
p862
sVedited
p863
I00
sVpermalink
p864
V/r/cpp/comments/7tiliz/why_are_headeronly_c_libraries_so_popular/dten8su/
p865
sVsubreddit_type
p866
Vpublic
p867
sVauthor_flair_css_class
p868
NsVstickied
p869
I00
sVauthor
p870
Vrodrigocfd
p871
sVsubreddit
p872
Vcpp
p873
sVauthor_flair_text
p874
NsVcreated_utc
p875
I1517223669
sVsubreddit_id
p876
Vt5_2qi27
p877
sVdistinguished
p878
NsVparent_id
p879
Vt1_dtdolyz
p880
sVscore
p881
I2
sVis_submitter
p882
I00
sVgilded
p883
I0
sVid
p884
Vdten8su
p885
sVcan_gild
p886
I01
sVlink_id
p887
Vt3_7tiliz
p888
sVretrieved_on
p889
I1518387887
sVcontroversiality
p890
I0
ssg644
Nsbsg99
g0
(g604
g2
Ntp891
Rp892
(dp893
g608
S'7tiliz'
p894
sg610
g611
sg612
(dp895
Vbody
p896
VStart to manage dependencies and compile for ios, android, windows, mac and linux and you will get a sense of why... guaranteed... haha!
p897
sVedited
p898
I00
sVpermalink
p899
V/r/cpp/comments/7tiliz/why_are_headeronly_c_libraries_so_popular/dtfc7tj/
p900
sVsubreddit_type
p901
Vpublic
p902
sVauthor_flair_css_class
p903
NsVstickied
p904
I00
sVauthor
p905
Vgermandiago
p906
sVsubreddit
p907
Vcpp
p908
sVauthor_flair_text
p909
NsVcreated_utc
p910
I1517254068
sVsubreddit_id
p911
Vt5_2qi27
p912
sVdistinguished
p913
NsVparent_id
p914
Vt3_7tiliz
p915
sVscore
p916
I2
sVis_submitter
p917
I00
sVgilded
p918
I0
sVid
p919
Vdtfc7tj
p920
sVcan_gild
p921
I01
sVlink_id
p922
Vt3_7tiliz
p923
sVretrieved_on
p924
I1518400400
sVcontroversiality
p925
I0
ssg644
Nsbsg108
g0
(g604
g2
Ntp926
Rp927
(dp928
g608
S'dtdy79u'
p929
sg610
g611
sg612
(dp930
Vbody
p931
VThe benefits of templates are incredibly obvious and I find the fact that you've asked that question to be dishonest. 
p932
sVedited
p933
I00
sVpermalink
p934
V/r/cpp/comments/7tiliz/why_are_headeronly_c_libraries_so_popular/dte05aj/
p935
sVsubreddit_type
p936
Vpublic
p937
sVauthor_flair_css_class
p938
NsVstickied
p939
I00
sVauthor
p940
VEe11656
p941
sVsubreddit
p942
Vcpp
p943
sVauthor_flair_text
p944
NsVcreated_utc
p945
I1517186227
sVsubreddit_id
p946
Vt5_2qi27
p947
sVdistinguished
p948
NsVparent_id
p949
Vt1_dtdy79u
p950
sVscore
p951
I2
sVis_submitter
p952
I00
sVgilded
p953
I0
sVid
p954
Vdte05aj
p955
sVcan_gild
p956
I01
sVlink_id
p957
Vt3_7tiliz
p958
sVretrieved_on
p959
I1518376556
sVcontroversiality
p960
I0
ssg644
(dp961
g307
g0
(g604
g2
Ntp962
Rp963
(dp964
g608
S'dte05aj'
p965
sg610
g611
sg612
(dp966
Vbody
p967
VObvious? Sure, for say generic container the benefits of templates are obvious and greatly outweigh the tradeoffs. Same goes for generic algorithms, SSE/AVX abstractions, chainable promises, smart pointers, and so on. But for socket abstraction? Well, I don't quite see it, and you avoiding answering my question sort of confirms it.
p968
sVedited
p969
I00
sVpermalink
p970
V/r/cpp/comments/7tiliz/why_are_headeronly_c_libraries_so_popular/dtekfng/
p971
sVsubreddit_type
p972
Vpublic
p973
sVauthor_flair_css_class
p974
NsVstickied
p975
I00
sVauthor
p976
Vairflow_matt
p977
sVsubreddit
p978
Vcpp
p979
sVauthor_flair_text
p980
NsVcreated_utc
p981
I1517216025
sVsubreddit_id
p982
Vt5_2qi27
p983
sVdistinguished
p984
NsVparent_id
p985
Vt1_dte05aj
p986
sVscore
p987
I2
sVis_submitter
p988
I00
sVgilded
p989
I0
sVid
p990
Vdtekfng
p991
sVcan_gild
p992
I01
sVlink_id
p993
Vt3_7tiliz
p994
sVretrieved_on
p995
I1518386503
sVcontroversiality
p996
I0
ssg644
Nsbssbsg288
g0
(g604
g2
Ntp997
Rp998
(dp999
g608
S'dtda4v8'
p1000
sg610
g611
sg612
(dp1001
Vbody
p1002
VI feel like this could be fixed by tooling/IDEs.\u000a\u000aI think it would be relatively easy to make an "interface view" of a module interface, that simply hide implementation. I bit like the ability of hiding scope, but enabled by default for function implementation.\u000a\u000aHeck, this could even by as simple as an option "folding implementation scopes by default" or even "folding implementation scope by default for external code".
p1003
sVedited
p1004
I00
sVpermalink
p1005
V/r/cpp/comments/7tiliz/why_are_headeronly_c_libraries_so_popular/dte2mzs/
p1006
sVsubreddit_type
p1007
Vpublic
p1008
sVauthor_flair_css_class
p1009
NsVstickied
p1010
I00
sVauthor
p1011
Vgracicot
p1012
sVsubreddit
p1013
Vcpp
p1014
sVauthor_flair_text
p1015
NsVcreated_utc
p1016
I1517189036
sVsubreddit_id
p1017
Vt5_2qi27
p1018
sVdistinguished
p1019
NsVparent_id
p1020
Vt1_dtda4v8
p1021
sVscore
p1022
I4
sVis_submitter
p1023
I00
sVgilded
p1024
I0
sVid
p1025
Vdte2mzs
p1026
sVcan_gild
p1027
I01
sVlink_id
p1028
Vt3_7tiliz
p1029
sVretrieved_on
p1030
I1518377781
sVcontroversiality
p1031
I0
ssg644
Nsbsg270
g0
(g604
g2
Ntp1032
Rp1033
(dp1034
g608
S'dtf0gq7'
p1035
sg610
g611
sg612
(dp1036
Vbody
p1037
VI believe that that sentence means that the programmer should do something like this:\u000a\u000a    enum e {\u000a        a,\u000a        b,\u000a        c,\u000a        E_MAX = 1 &lt;&lt; 15\u000a    };\u000a\u000aI think explicitly specifying the type of the enum would eliminate the need for that, but that was added in C++11, so it may not be possible for the maintainers to use that (yet).
p1038
sVedited
p1039
I00
sVpermalink
p1040
V/r/cpp/comments/7tiliz/why_are_headeronly_c_libraries_so_popular/dtf14j3/
p1041
sVsubreddit_type
p1042
Vpublic
p1043
sVauthor_flair_css_class
p1044
NsVstickied
p1045
I00
sVauthor
p1046
Vaw1621107
p1047
sVsubreddit
p1048
Vcpp
p1049
sVauthor_flair_text
p1050
NsVcreated_utc
p1051
I1517243746
sVsubreddit_id
p1052
Vt5_2qi27
p1053
sVdistinguished
p1054
NsVparent_id
p1055
Vt1_dtf0gq7
p1056
sVscore
p1057
I3
sVis_submitter
p1058
I00
sVgilded
p1059
I0
sVid
p1060
Vdtf14j3
p1061
sVcan_gild
p1062
I01
sVlink_id
p1063
Vt3_7tiliz
p1064
sVretrieved_on
p1065
I1518394790
sVcontroversiality
p1066
I0
ssg644
Nsbsg524
g0
(g604
g2
Ntp1067
Rp1068
(dp1069
g608
S'dtd17p1'
p1070
sg610
g611
sg612
(dp1071
Vbody
p1072
V&gt; I wonder what kind your projects are? Our work project has a few 10k lines of code and often takes 5+ minutes for an incremental build due to borked internal dependencies.\u000a\u000awow, yuck. A project I work on is currently sitting at 292kloc with many of it being templates and header only (+ heaaavy usage of boost), but an incremental rebuild that modifies a single file is less than a few seconds ; the whole project builds from scratch in less than ten minutes, even less if using unity builds.
p1073
sVedited
p1074
I00
sVpermalink
p1075
V/r/cpp/comments/7tiliz/why_are_headeronly_c_libraries_so_popular/dtelkvx/
p1076
sVsubreddit_type
p1077
Vpublic
p1078
sVauthor_flair_css_class
p1079
NsVstickied
p1080
I00
sVauthor
p1081
Vdoom_Oo7
p1082
sVsubreddit
p1083
Vcpp
p1084
sVauthor_flair_text
p1085
NsVcreated_utc
p1086
I1517219090
sVsubreddit_id
p1087
Vt5_2qi27
p1088
sVdistinguished
p1089
NsVparent_id
p1090
Vt1_dtd17p1
p1091
sVscore
p1092
I1
sVis_submitter
p1093
I00
sVgilded
p1094
I0
sVid
p1095
Vdtelkvx
p1096
sVcan_gild
p1097
I01
sVlink_id
p1098
Vt3_7tiliz
p1099
sVretrieved_on
p1100
I1518387067
sVcontroversiality
p1101
I0
ssg644
Nsbsg317
g0
(g604
g2
Ntp1102
Rp1103
(dp1104
g608
S'dtcx0kt'
p1105
sg610
g611
sg612
(dp1106
Vbody
p1107
V&gt;  negative questions, e.g.: "So you don't want to go?" - a "no" reply here would mean "don't want to go", i.e. agreement!\u000a\u000aThat's ambiguous even to native speakers. In general, just don't ask negative questions.
p1108
sVedited
p1109
I00
sVpermalink
p1110
V/r/cpp/comments/7tiliz/why_are_headeronly_c_libraries_so_popular/dte2f0z/
p1111
sVsubreddit_type
p1112
Vpublic
p1113
sVauthor_flair_css_class
p1114
NsVstickied
p1115
I00
sVauthor
p1116
VReversedGif
p1117
sVsubreddit
p1118
Vcpp
p1119
sVauthor_flair_text
p1120
NsVcreated_utc
p1121
I1517188777
sVsubreddit_id
p1122
Vt5_2qi27
p1123
sVdistinguished
p1124
NsVparent_id
p1125
Vt1_dtcx0kt
p1126
sVscore
p1127
I2
sVis_submitter
p1128
I00
sVgilded
p1129
I0
sVid
p1130
Vdte2f0z
p1131
sVcan_gild
p1132
I01
sVlink_id
p1133
Vt3_7tiliz
p1134
sVretrieved_on
p1135
I1518377674
sVcontroversiality
p1136
I0
ssg644
(dp1137
g341
g0
(g604
g2
Ntp1138
Rp1139
(dp1140
g608
S'dte2f0z'
p1141
sg610
g611
sg612
(dp1142
Vbody
p1143
VYeah you'd normally elaborate slightly when answering, e.g. "no I don't". You're still "agreeing" with a "no", but it's now clear.\u000a\u000aYou can also disagree with "no" as normal - "no, I _do_ want to go" - but that takes emphasis to make it fully understood.
p1144
sVedited
p1145
I00
sVpermalink
p1146
V/r/cpp/comments/7tiliz/why_are_headeronly_c_libraries_so_popular/dteieqn/
p1147
sVsubreddit_type
p1148
Vpublic
p1149
sVauthor_flair_css_class
p1150
V
p1151
sVstickied
p1152
I00
sVauthor
p1153
VTheThiefMaster
p1154
sVsubreddit
p1155
Vcpp
p1156
sVauthor_flair_text
p1157
VC++latest fanatic (and game dev)
p1158
sVcreated_utc
p1159
I1517211087
sVsubreddit_id
p1160
Vt5_2qi27
p1161
sVdistinguished
p1162
NsVparent_id
p1163
Vt1_dte2f0z
p1164
sVscore
p1165
I3
sVis_submitter
p1166
I00
sVgilded
p1167
I0
sVid
p1168
Vdteieqn
p1169
sVcan_gild
p1170
I01
sVlink_id
p1171
Vt3_7tiliz
p1172
sVretrieved_on
p1173
I1518385500
sVcontroversiality
p1174
I0
ssg644
Nsbssbsg487
g0
(g604
g2
Ntp1175
Rp1176
(dp1177
g608
S'dtdenrr'
p1178
sg610
g611
sg612
(dp1179
Vbody
p1180
V&gt;Talk about Ubuntu package manager now, which contains ancient packages, \u000a\u000aThe freshness of the packages in the repo have very little to do with the manager itself...  You can use dpkg and apt to build something entirely unrelated to Debian/Ubuntu. 
p1181
sVedited
p1182
I00
sVpermalink
p1183
V/r/cpp/comments/7tiliz/why_are_headeronly_c_libraries_so_popular/dte9vet/
p1184
sVsubreddit_type
p1185
Vpublic
p1186
sVauthor_flair_css_class
p1187
NsVstickied
p1188
I00
sVauthor
p1189
VimMute
p1190
sVsubreddit
p1191
Vcpp
p1192
sVauthor_flair_text
p1193
NsVcreated_utc
p1194
I1517197331
sVsubreddit_id
p1195
Vt5_2qi27
p1196
sVdistinguished
p1197
NsVparent_id
p1198
Vt1_dtdenrr
p1199
sVscore
p1200
I3
sVis_submitter
p1201
I00
sVgilded
p1202
I0
sVid
p1203
Vdte9vet
p1204
sVcan_gild
p1205
I01
sVlink_id
p1206
Vt3_7tiliz
p1207
sVretrieved_on
p1208
I1518381317
sVcontroversiality
p1209
I0
ssg644
Nsbsg552
g0
(g604
g2
Ntp1210
Rp1211
(dp1212
g608
S'dtd4av8'
p1213
sg610
g611
sg612
(dp1214
Vbody
p1215
VI don't know about anyone's else's experience, but I work at a large company that ships a number of programming environments and SDKs, and we most certainly test important 3rd party software that uses our products to make sure we don't break stuff.
p1216
sVedited
p1217
I00
sVpermalink
p1218
V/r/cpp/comments/7tiliz/why_are_headeronly_c_libraries_so_popular/dten4vb/
p1219
sVsubreddit_type
p1220
Vpublic
p1221
sVauthor_flair_css_class
p1222
g1151
sVstickied
p1223
I00
sVauthor
p1224
Vblelbach
p1225
sVsubreddit
p1226
Vcpp
p1227
sVauthor_flair_text
p1228
VNVIDIA Thrust Dev l HPX | CppCon | C++Now
p1229
sVcreated_utc
p1230
I1517223375
sVsubreddit_id
p1231
Vt5_2qi27
p1232
sVdistinguished
p1233
NsVparent_id
p1234
Vt1_dtd4av8
p1235
sVscore
p1236
I1
sVis_submitter
p1237
I00
sVgilded
p1238
I0
sVid
p1239
Vdten4vb
p1240
sVcan_gild
p1241
I01
sVlink_id
p1242
Vt3_7tiliz
p1243
sVretrieved_on
p1244
I1518387834
sVcontroversiality
p1245
I0
ssg644
Nsbsg81
g0
(g604
g2
Ntp1246
Rp1247
(dp1248
g608
S'dtdcv4h'
p1249
sg610
g611
sg612
(dp1250
Vbody
p1251
VThis would be a solution if they could manage multiple versions of a single package and function without admin permissions. Unfortunately apt does neither (which I use at home), and the package manager for RHEL (which all my shared computing resources use) is so laughably behind that it's not useful. I recently wanted to get a package that requires libclang. RHEL does not have clang.
p1252
sVedited
p1253
I00
sVpermalink
p1254
V/r/cpp/comments/7tiliz/why_are_headeronly_c_libraries_so_popular/dtesohj/
p1255
sVsubreddit_type
p1256
Vpublic
p1257
sVauthor_flair_css_class
p1258
NsVstickied
p1259
I00
sVauthor
p1260
VSaefroch
p1261
sVsubreddit
p1262
Vcpp
p1263
sVauthor_flair_text
p1264
NsVcreated_utc
p1265
I1517234236
sVsubreddit_id
p1266
Vt5_2qi27
p1267
sVdistinguished
p1268
NsVparent_id
p1269
Vt1_dtdcv4h
p1270
sVscore
p1271
I2
sVis_submitter
p1272
I00
sVgilded
p1273
I0
sVid
p1274
Vdtesohj
p1275
sVcan_gild
p1276
I01
sVlink_id
p1277
Vt3_7tiliz
p1278
sVretrieved_on
p1279
I1518390596
sVcontroversiality
p1280
I0
ssg644
Nsbsg41
g0
(g604
g2
Ntp1281
Rp1282
(dp1283
g608
S'dtdhugn'
p1284
sg610
g611
sg612
(dp1285
Vbody
p1286
V[deleted]
p1287
sVedited
p1288
I1517654781
sVpermalink
p1289
V/r/cpp/comments/7tiliz/why_are_headeronly_c_libraries_so_popular/dte01e3/
p1290
sVsubreddit_type
p1291
Vpublic
p1292
sVauthor_flair_css_class
p1293
NsVstickied
p1294
I00
sVauthor
p1295
V[deleted]
p1296
sVsubreddit
p1297
Vcpp
p1298
sVauthor_flair_text
p1299
NsVcreated_utc
p1300
I1517186096
sVsubreddit_id
p1301
Vt5_2qi27
p1302
sVdistinguished
p1303
NsVparent_id
p1304
Vt1_dtdhugn
p1305
sVscore
p1306
I0
sVis_submitter
p1307
I00
sVgilded
p1308
I0
sVid
p1309
Vdte01e3
p1310
sVcan_gild
p1311
I00
sVlink_id
p1312
Vt3_7tiliz
p1313
sVretrieved_on
p1314
I1518376502
sVcontroversiality
p1315
I0
ssg644
(dp1316
g448
g0
(g604
g2
Ntp1317
Rp1318
(dp1319
g608
S'dte01e3'
p1320
sg610
g611
sg612
(dp1321
Vbody
p1322
VSeems no one can actually explain why they think the sqlite way is less practical. That sounds exactly like cargo cult.
p1323
sVedited
p1324
I00
sVpermalink
p1325
V/r/cpp/comments/7tiliz/why_are_headeronly_c_libraries_so_popular/dteh4mz/
p1326
sVsubreddit_type
p1327
Vpublic
p1328
sVauthor_flair_css_class
p1329
NsVstickied
p1330
I00
sVauthor
p1331
Vhgjsusla
p1332
sVsubreddit
p1333
Vcpp
p1334
sVauthor_flair_text
p1335
NsVcreated_utc
p1336
I1517208352
sVsubreddit_id
p1337
Vt5_2qi27
p1338
sVdistinguished
p1339
NsVparent_id
p1340
Vt1_dte01e3
p1341
sVscore
p1342
I2
sVis_submitter
p1343
I00
sVgilded
p1344
I0
sVid
p1345
Vdteh4mz
p1346
sVcan_gild
p1347
I01
sVlink_id
p1348
Vt3_7tiliz
p1349
sVretrieved_on
p1350
I1518384871
sVcontroversiality
p1351
I0
ssg644
(dp1352
g42
g0
(g604
g2
Ntp1353
Rp1354
(dp1355
g608
S'dteh4mz'
p1356
sg610
g611
sg612
(dp1357
Vbody
p1358
V[deleted]
p1359
sVedited
p1360
I1517654779
sVpermalink
p1361
V/r/cpp/comments/7tiliz/why_are_headeronly_c_libraries_so_popular/dtfqj0v/
p1362
sVsubreddit_type
p1363
Vpublic
p1364
sVauthor_flair_css_class
p1365
NsVstickied
p1366
I00
sVauthor
p1367
V[deleted]
p1368
sVsubreddit
p1369
Vcpp
p1370
sVauthor_flair_text
p1371
NsVcreated_utc
p1372
I1517267828
sVsubreddit_id
p1373
Vt5_2qi27
p1374
sVdistinguished
p1375
NsVparent_id
p1376
Vt1_dteh4mz
p1377
sVscore
p1378
I1
sVis_submitter
p1379
I00
sVgilded
p1380
I0
sVid
p1381
Vdtfqj0v
p1382
sVcan_gild
p1383
I00
sVlink_id
p1384
Vt3_7tiliz
p1385
sVretrieved_on
p1386
I1518407540
sVcontroversiality
p1387
I0
ssg644
Nsbssbssbsg426
g0
(g604
g2
Ntp1388
Rp1389
(dp1390
g608
S'7tiliz'
p1391
sg610
g611
sg612
(dp1392
Vbody
p1393
V'cause ain't nobody got time for linkin' stinkin' problems
p1394
sVedited
p1395
I00
sVpermalink
p1396
V/r/cpp/comments/7tiliz/why_are_headeronly_c_libraries_so_popular/dtekjnj/
p1397
sVsubreddit_type
p1398
Vpublic
p1399
sVauthor_flair_css_class
p1400
NsVstickied
p1401
I00
sVauthor
p1402
Vhikolu3
p1403
sVsubreddit
p1404
Vcpp
p1405
sVauthor_flair_text
p1406
NsVcreated_utc
p1407
I1517216317
sVsubreddit_id
p1408
Vt5_2qi27
p1409
sVdistinguished
p1410
NsVparent_id
p1411
Vt3_7tiliz
p1412
sVscore
p1413
I1
sVis_submitter
p1414
I00
sVgilded
p1415
I0
sVid
p1416
Vdtekjnj
p1417
sVcan_gild
p1418
I01
sVlink_id
p1419
Vt3_7tiliz
p1420
sVretrieved_on
p1421
I1518386557
sVcontroversiality
p1422
I0
ssg644
Nsbsg144
g0
(g604
g2
Ntp1423
Rp1424
(dp1425
g608
S'dtdqxng'
p1426
sg610
g611
sg612
(dp1427
Vbody
p1428
VA good system should only runs the tests for code that was updated (directly or through compiler / option changes).\u000a\u000aSo it's irrelevant to consider whether you should run the 3rd party library's tests as they would be rerun automatically whenever it should do so.
p1429
sVedited
p1430
I00
sVpermalink
p1431
V/r/cpp/comments/7tiliz/why_are_headeronly_c_libraries_so_popular/dtellge/
p1432
sVsubreddit_type
p1433
Vpublic
p1434
sVauthor_flair_css_class
p1435
g1151
sVstickied
p1436
I00
sVauthor
p1437
VOrphisFlo
p1438
sVsubreddit
p1439
Vcpp
p1440
sVauthor_flair_text
p1441
VI like build tools
p1442
sVcreated_utc
p1443
I1517219132
sVsubreddit_id
p1444
Vt5_2qi27
p1445
sVdistinguished
p1446
NsVparent_id
p1447
Vt1_dtdqxng
p1448
sVscore
p1449
I1
sVis_submitter
p1450
I00
sVgilded
p1451
I0
sVid
p1452
Vdtellge
p1453
sVcan_gild
p1454
I01
sVlink_id
p1455
Vt3_7tiliz
p1456
sVretrieved_on
p1457
I1518387075
sVcontroversiality
p1458
I0
ssg644
Nsbsg242
g0
(g604
g2
Ntp1459
Rp1460
(dp1461
g608
S'7tiliz'
p1462
sg610
g611
sg612
(dp1463
Vbody
p1464
VTo use a library you have to include a header anyway. \u000a\u000aA header only library eliminates steps. Those steps all have classes of errors that can be associated with them. They are just simpler to use.
p1465
sVedited
p1466
I00
sVpermalink
p1467
V/r/cpp/comments/7tiliz/why_are_headeronly_c_libraries_so_popular/dtdy7h9/
p1468
sVsubreddit_type
p1469
Vpublic
p1470
sVauthor_flair_css_class
p1471
NsVstickied
p1472
I00
sVauthor
p1473
Vagainstmethod
p1474
sVsubreddit
p1475
Vcpp
p1476
sVauthor_flair_text
p1477
NsVcreated_utc
p1478
I1517184000
sVsubreddit_id
p1479
Vt5_2qi27
p1480
sVdistinguished
p1481
NsVparent_id
p1482
Vt3_7tiliz
p1483
sVscore
p1484
I4
sVis_submitter
p1485
I00
sVgilded
p1486
I0
sVid
p1487
Vdtdy7h9
p1488
sVcan_gild
p1489
I01
sVlink_id
p1490
Vt3_7tiliz
p1491
sVretrieved_on
p1492
I1518375607
sVcontroversiality
p1493
I0
ssg644
Nsbsg233
g0
(g604
g2
Ntp1494
Rp1495
(dp1496
g608
S'dtdaxag'
p1497
sg610
g611
sg612
(dp1498
Vbody
p1499
VThe article you linked says this under the "The Do's and Don'ts" section:\u000a\u000a&gt;You can...\u000a&gt;\u000a&gt;append new enumerators to an existing enum.\u000a&gt;\u000a&gt;* Exception: if that leads to the compiler choosing a larger underlying type for the enum, that makes the change binary-incompatible. Unfortunately, compilers have some leeway to choose the underlying type, **so from an API-design perspective it's recommended to add a Max.... enumerator with an explicit large value (=255, =1&lt;&lt;15, etc)** to create an interval of numeric enumerator values that is guaranteed to fit into the chosen underlying type, whatever that may be.\u000a\u000aWhat does that mean? How would one do that?\u000a\u000aCould this problem be prevented by explicitly stating the type of the enum? For example:\u000a\u000a    // enum that takes 16 bits:\u000a    enum smallenum: int16_t {\u000a        a,\u000a        b,\u000a        c\u000a    };
p1500
sVedited
p1501
I00
sVpermalink
p1502
V/r/cpp/comments/7tiliz/why_are_headeronly_c_libraries_so_popular/dtf0gq7/
p1503
sVsubreddit_type
p1504
Vpublic
p1505
sVauthor_flair_css_class
p1506
NsVstickied
p1507
I00
sVauthor
p1508
VIAlsoLikePlutonium
p1509
sVsubreddit
p1510
Vcpp
p1511
sVauthor_flair_text
p1512
NsVcreated_utc
p1513
I1517243092
sVsubreddit_id
p1514
Vt5_2qi27
p1515
sVdistinguished
p1516
NsVparent_id
p1517
Vt1_dtdaxag
p1518
sVscore
p1519
I1
sVis_submitter
p1520
I00
sVgilded
p1521
I0
sVid
p1522
Vdtf0gq7
p1523
sVcan_gild
p1524
I01
sVlink_id
p1525
Vt3_7tiliz
p1526
sVretrieved_on
p1527
I1518394444
sVcontroversiality
p1528
I0
ssg644
(dp1529
g270
g1033
sg135
g0
(g604
g2
Ntp1530
Rp1531
(dp1532
g608
S'dtf0gq7'
p1533
sg610
g611
sg612
(dp1534
Vbody
p1535
V&gt; What does that mean? How would one do that?\u000a\u000aBy doing something like\u000a\u000a    enum Foo {\u000a        Bar = 0,\u000a        Baz = 1,\u000a        // ...\u000a        MAX_VAL = 65535\u000a    };\u000a\u000aIn this fashion you will force `Foo` to have at least 2 bytes of storage.  For future expansion you would add new values in between whatever the last used value was, and `MAX_VAL`.\u000a\u000a&gt; Could this problem be prevented by explicitly stating the type of the enum?\u000a\u000aYes, though I am uncertain if every compiler supported by KDE has that bit of C++11 support yet (believe it or not we don't yet require that across the board!).  There are other bits of advice that are ancient though so it may just be that we need to update the Wiki to be more current.
p1536
sVedited
p1537
I00
sVpermalink
p1538
V/r/cpp/comments/7tiliz/why_are_headeronly_c_libraries_so_popular/dtfr9yr/
p1539
sVsubreddit_type
p1540
Vpublic
p1541
sVauthor_flair_css_class
p1542
NsVstickied
p1543
I00
sVauthor
p1544
Vmpyne
p1545
sVsubreddit
p1546
Vcpp
p1547
sVauthor_flair_text
p1548
NsVcreated_utc
p1549
I1517268601
sVsubreddit_id
p1550
Vt5_2qi27
p1551
sVdistinguished
p1552
NsVparent_id
p1553
Vt1_dtf0gq7
p1554
sVscore
p1555
I2
sVis_submitter
p1556
I00
sVgilded
p1557
I0
sVid
p1558
Vdtfr9yr
p1559
sVcan_gild
p1560
I01
sVlink_id
p1561
Vt3_7tiliz
p1562
sVretrieved_on
p1563
I1518407909
sVcontroversiality
p1564
I0
ssg644
Nsbssbsg523
g0
(g604
g2
Ntp1565
Rp1566
(dp1567
g608
S'dtda4v8'
p1568
sg610
g611
sg612
(dp1569
Vbody
p1570
V&gt; I personally strive to keep my interfaces as concise and readable as possible since they are the ultimate documentation. Having interface declarations intermixed with implementation details will certainly subtract from readability.\u000a\u000aI really don't see the problem in this. For instance every C# IDE is able to show only the interface of a class or module for a quick skim. Why do manually what a computer can do for us ? 
p1571
sVedited
p1572
I00
sVpermalink
p1573
V/r/cpp/comments/7tiliz/why_are_headeronly_c_libraries_so_popular/dteli6b/
p1574
sVsubreddit_type
p1575
Vpublic
p1576
sVauthor_flair_css_class
p1577
NsVstickied
p1578
I00
sVauthor
p1579
Vdoom_Oo7
p1580
sVsubreddit
p1581
Vcpp
p1582
sVauthor_flair_text
p1583
NsVcreated_utc
p1584
I1517218874
sVsubreddit_id
p1585
Vt5_2qi27
p1586
sVdistinguished
p1587
NsVparent_id
p1588
Vt1_dtda4v8
p1589
sVscore
p1590
I2
sVis_submitter
p1591
I00
sVgilded
p1592
I0
sVid
p1593
Vdteli6b
p1594
sVcan_gild
p1595
I01
sVlink_id
p1596
Vt3_7tiliz
p1597
sVretrieved_on
p1598
I1518387031
sVcontroversiality
p1599
I0
ssg644
Nsbsg42
g1354
sg580
g0
(g604
g2
Ntp1600
Rp1601
(dp1602
g608
S'dtd2f34'
p1603
sg610
g611
sg612
(dp1604
Vbody
p1605
VWell, end-users aren't really the problem here. As I see it, developers on every other system can just compile and "make install" the needed dependencies if need be. Then they get on with their lives and can keep coding.\u000a\u000aExcept on Windows.\u000a\u000aIn fact, in many cases it's easier to develop on non-windows and cross-compile to Windows because of this (see [MXE](http://mxe.cc), for example.)
p1606
sVedited
p1607
I00
sVpermalink
p1608
V/r/cpp/comments/7tiliz/why_are_headeronly_c_libraries_so_popular/dteodra/
p1609
sVsubreddit_type
p1610
Vpublic
p1611
sVauthor_flair_css_class
p1612
NsVstickied
p1613
I00
sVauthor
p1614
VRealNC
p1615
sVsubreddit
p1616
Vcpp
p1617
sVauthor_flair_text
p1618
NsVcreated_utc
p1619
I1517226517
sVsubreddit_id
p1620
Vt5_2qi27
p1621
sVdistinguished
p1622
NsVparent_id
p1623
Vt1_dtd2f34
p1624
sVscore
p1625
I1
sVis_submitter
p1626
I00
sVgilded
p1627
I0
sVid
p1628
Vdteodra
p1629
sVcan_gild
p1630
I01
sVlink_id
p1631
Vt3_7tiliz
p1632
sVretrieved_on
p1633
I1518388448
sVcontroversiality
p1634
I0
ssg644
Nsbsg543
g0
(g604
g2
Ntp1635
Rp1636
(dp1637
g608
S'dtdvhje'
p1638
sg610
g611
sg612
(dp1639
Vbody
p1640
VSo... English has three versions:\u000a\u000aa) To not give a crap about something -&gt; Don't care about something, negative\u000ab) To give a crap about something -&gt; To care about something, positive\u000ac) To give crap to someone -&gt; Yell at someone, negative\u000a\u000aAnd in my native language we do not say a), we say b) to mean a). No wonder I find this confusing, but having some experience with OpenSSL: It's still less confusing than OpenSSL. :)
p1641
sVedited
p1642
I00
sVpermalink
p1643
V/r/cpp/comments/7tiliz/why_are_headeronly_c_libraries_so_popular/dtf1k1t/
p1644
sVsubreddit_type
p1645
Vpublic
p1646
sVauthor_flair_css_class
p1647
g1151
sVstickied
p1648
I00
sVauthor
p1649
Vd-frey
p1650
sVsubreddit
p1651
Vcpp
p1652
sVauthor_flair_text
p1653
VPEGTL | taocpp
p1654
sVcreated_utc
p1655
I1517244173
sVsubreddit_id
p1656
Vt5_2qi27
p1657
sVdistinguished
p1658
NsVparent_id
p1659
Vt1_dtdvhje
p1660
sVscore
p1661
I3
sVis_submitter
p1662
I00
sVgilded
p1663
I0
sVid
p1664
Vdtf1k1t
p1665
sVcan_gild
p1666
I01
sVlink_id
p1667
Vt3_7tiliz
p1668
sVretrieved_on
p1669
I1518395007
sVcontroversiality
p1670
I0
ssg644
Nsbsg534
g0
(g604
g2
Ntp1671
Rp1672
(dp1673
g608
S'dtdy51c'
p1674
sg610
g611
sg612
(dp1675
Vbody
p1676
VHow does this play with libraries that may also be present on the system?\u000a\u000aI use a couple of header-only libraries, but I also use Ceres and ITK. I'd like to give the user the option of using an existing compiled/installed version if present on their system (and it reaches a minimum required version).
p1677
sVedited
p1678
I00
sVpermalink
p1679
V/r/cpp/comments/7tiliz/why_are_headeronly_c_libraries_so_popular/dtepyu3/
p1680
sVsubreddit_type
p1681
Vpublic
p1682
sVauthor_flair_css_class
p1683
NsVstickied
p1684
I00
sVauthor
p1685
Vspinicist
p1686
sVsubreddit
p1687
Vcpp
p1688
sVauthor_flair_text
p1689
NsVcreated_utc
p1690
I1517229836
sVsubreddit_id
p1691
Vt5_2qi27
p1692
sVdistinguished
p1693
NsVparent_id
p1694
Vt1_dtdy51c
p1695
sVscore
p1696
I1
sVis_submitter
p1697
I00
sVgilded
p1698
I0
sVid
p1699
Vdtepyu3
p1700
sVcan_gild
p1701
I01
sVlink_id
p1702
Vt3_7tiliz
p1703
sVretrieved_on
p1704
I1518389237
sVcontroversiality
p1705
I0
ssg644
(dp1706
g601
g752
ssbsg341
g1139
sg417
g0
(g604
g2
Ntp1707
Rp1708
(dp1709
g608
S'dtdenrr'
p1710
sg610
g611
sg612
(dp1711
Vbody
p1712
VIf people use those old versions they mostly do so to avoid most of the new packages. While I use Arch with pacman on my main-machine, I have Debian (!) Stable (!!) on another laptop and the story is pretty much the same there: Make sure that you are not using overly obscure packages and you can develop very easily.
p1713
sVedited
p1714
I00
sVpermalink
p1715
V/r/cpp/comments/7tiliz/why_are_headeronly_c_libraries_so_popular/dtdzlv8/
p1716
sVsubreddit_type
p1717
Vpublic
p1718
sVauthor_flair_css_class
p1719
NsVstickied
p1720
I00
sVauthor
p1721
VF-J-W
p1722
sVsubreddit
p1723
Vcpp
p1724
sVauthor_flair_text
p1725
NsVcreated_utc
p1726
I1517185601
sVsubreddit_id
p1727
Vt5_2qi27
p1728
sVdistinguished
p1729
NsVparent_id
p1730
Vt1_dtdenrr
p1731
sVscore
p1732
I3
sVis_submitter
p1733
I00
sVgilded
p1734
I0
sVid
p1735
Vdtdzlv8
p1736
sVcan_gild
p1737
I01
sVlink_id
p1738
Vt3_7tiliz
p1739
sVretrieved_on
p1740
I1518376289
sVcontroversiality
p1741
I0
ssg644
Nsbsg135
g1531
sg448
g1318
sg307
g963
sg279
g0
(g604
g2
Ntp1742
Rp1743
(dp1744
g608
S'dtd2f34'
p1745
sg610
g611
sg612
(dp1746
Vbody
p1747
VFor most libraries that you'll ever link to, even a 5 year old version should be plenty new enough.
p1748
sVedited
p1749
I00
sVpermalink
p1750
V/r/cpp/comments/7tiliz/why_are_headeronly_c_libraries_so_popular/dte6dgx/
p1751
sVsubreddit_type
p1752
Vpublic
p1753
sVauthor_flair_css_class
p1754
NsVstickied
p1755
I00
sVauthor
p1756
Vo11c
p1757
sVsubreddit
p1758
Vcpp
p1759
sVauthor_flair_text
p1760
NsVcreated_utc
p1761
I1517193260
sVsubreddit_id
p1762
Vt5_2qi27
p1763
sVdistinguished
p1764
NsVparent_id
p1765
Vt1_dtd2f34
p1766
sVscore
p1767
I-1
sVis_submitter
p1768
I00
sVgilded
p1769
I0
sVid
p1770
Vdte6dgx
p1771
sVcan_gild
p1772
I01
sVlink_id
p1773
Vt3_7tiliz
p1774
sVretrieved_on
p1775
I1518379608
sVcontroversiality
p1776
I0
ssg644
Nsbssg464
(dp1777
g48
g0
(g604
g2
Ntp1778
Rp1779
(dp1780
g608
S'dtfe0qd'
p1781
sg610
g611
sg612
(dp1782
Vbody
p1783
V[deleted]
p1784
sVedited
p1785
I00
sVpermalink
p1786
V/r/changemyview/comments/7tu0ft/cmv_spoilers_with_the_exception_of_a_single_scene/dtffttj/
p1787
sVsubreddit_type
p1788
Vpublic
p1789
sVauthor_flair_css_class
p1790
NsVstickied
p1791
I00
sVauthor
p1792
V[deleted]
p1793
sVsubreddit
p1794
Vchangemyview
p1795
sVauthor_flair_text
p1796
NsVcreated_utc
p1797
I1517257459
sVsubreddit_id
p1798
Vt5_2w2s8
p1799
sVdistinguished
p1800
NsVparent_id
p1801
Vt1_dtfe0qd
p1802
sVscore
p1803
I5
sVis_submitter
p1804
I00
sVgilded
p1805
I0
sVid
p1806
Vdtffttj
p1807
sVcan_gild
p1808
I01
sVlink_id
p1809
Vt3_7tu0ft
p1810
sVretrieved_on
p1811
I1518402184
sVcontroversiality
p1812
I0
ssg644
Nsbsg329
g0
(g604
g2
Ntp1813
Rp1814
(dp1815
g608
S'dtfeeqz'
p1816
sg610
g611
sg612
(dp1817
Vbody
p1818
V&gt; I didn't watch the movie, was too turned off by the marketing. I heard though that it brought women up at the expense of men.\u000a\u000aI again have no idea how this would even look.  I've given you a couple of chances to say a movie where this happens and explain how it'd work, but you can't... the only example you had was a movie you didn't see.  Am I wrong?\u000a\u000a&gt; Perhaps, but certainly it's superior to just counting the not-white people in a film and declaring it's SJW because there is too many right?\u000a\u000aNo, because if the entire concept is nonsense, it doesn't matter how anyone uses it.
p1819
sVedited
p1820
I00
sVpermalink
p1821
V/r/changemyview/comments/7tu0ft/cmv_spoilers_with_the_exception_of_a_single_scene/dtff2lg/
p1822
sVsubreddit_type
p1823
Vpublic
p1824
sVauthor_flair_css_class
p1825
NsVstickied
p1826
I00
sVauthor
p1827
VPreacherJudge
p1828
sVsubreddit
p1829
Vchangemyview
p1830
sVauthor_flair_text
p1831
V126\u2206
p1832
sVcreated_utc
p1833
I1517256755
sVsubreddit_id
p1834
Vt5_2w2s8
p1835
sVdistinguished
p1836
NsVparent_id
p1837
Vt1_dtfeeqz
p1838
sVscore
p1839
I1
sVis_submitter
p1840
I00
sVgilded
p1841
I0
sVid
p1842
Vdtff2lg
p1843
sVcan_gild
p1844
I01
sVlink_id
p1845
Vt3_7tu0ft
p1846
sVretrieved_on
p1847
I1518401809
sVcontroversiality
p1848
I0
ssg644
(dp1849
g364
g0
(g604
g2
Ntp1850
Rp1851
(dp1852
g608
S'dtff2lg'
p1853
sg610
g611
sg612
(dp1854
Vbody
p1855
V&gt; Am I wrong?\u000a\u000aOkay fine, something more obvious and in the face. Get Out...surely you see it in THAT movie right? What about the movie Dear White People? The "I'M A WOMAN!" line in LOTR?
p1856
sVedited
p1857
I00
sVpermalink
p1858
V/r/changemyview/comments/7tu0ft/cmv_spoilers_with_the_exception_of_a_single_scene/dtffmi3/
p1859
sVsubreddit_type
p1860
Vpublic
p1861
sVauthor_flair_css_class
p1862
NsVstickied
p1863
I00
sVauthor
p1864
VZeusThunder369
p1865
sVsubreddit
p1866
Vchangemyview
p1867
sVauthor_flair_text
p1868
V7\u2206
p1869
sVcreated_utc
p1870
I1517257270
sVsubreddit_id
p1871
Vt5_2w2s8
p1872
sVdistinguished
p1873
NsVparent_id
p1874
Vt1_dtff2lg
p1875
sVscore
p1876
I1
sVis_submitter
p1877
I01
sVgilded
p1878
I0
sVid
p1879
Vdtffmi3
p1880
sVcan_gild
p1881
I01
sVlink_id
p1882
Vt3_7tu0ft
p1883
sVretrieved_on
p1884
I1518402086
sVcontroversiality
p1885
I0
ssg644
(dp1886
g330
g0
(g604
g2
Ntp1887
Rp1888
(dp1889
g608
S'dtffmi3'
p1890
sg610
g611
sg612
(dp1891
Vbody
p1892
VDid you see Dear White People, or are you just familiar with the title?  If you did see it, exactly what happened in the movie that you disapprove of?\u000a\u000aAnd the "I am a woman" line was based on the unexpected loophole in the prophecy, right?  This is an extremely weak example.
p1893
sVedited
p1894
I00
sVpermalink
p1895
V/r/changemyview/comments/7tu0ft/cmv_spoilers_with_the_exception_of_a_single_scene/dtfgvrx/
p1896
sVsubreddit_type
p1897
Vpublic
p1898
sVauthor_flair_css_class
p1899
NsVstickied
p1900
I00
sVauthor
p1901
VPreacherJudge
p1902
sVsubreddit
p1903
Vchangemyview
p1904
sVauthor_flair_text
p1905
V126\u2206
p1906
sVcreated_utc
p1907
I1517258441
sVsubreddit_id
p1908
Vt5_2w2s8
p1909
sVdistinguished
p1910
NsVparent_id
p1911
Vt1_dtffmi3
p1912
sVscore
p1913
I3
sVis_submitter
p1914
I00
sVgilded
p1915
I0
sVid
p1916
Vdtfgvrx
p1917
sVcan_gild
p1918
I01
sVlink_id
p1919
Vt3_7tu0ft
p1920
sVretrieved_on
p1921
I1518402701
sVcontroversiality
p1922
I0
ssg644
(dp1923
g365
g0
(g604
g2
Ntp1924
Rp1925
(dp1926
g608
S'dtfgvrx'
p1927
sg610
g611
sg612
(dp1928
Vbody
p1929
V&gt; exactly what happened in the movie that you disapprove of?\u000a\u000aOffering a definition of what 'white privilege' is, especially in such a canned way that was regurgitated rather than natural, is about as obvious SJW as you can get.\u000a\u000a&gt; This is an extremely weak example.\u000a\u000aSure, but it's still an example\u000a\u000aMy view isn't that SJW propaganda is rampant in the film industry by the way. It's that it isn't present in the new Star Wars films. So lacking a bunch of obvious examples isn't really addressing my view.
p1930
sVedited
p1931
I00
sVpermalink
p1932
V/r/changemyview/comments/7tu0ft/cmv_spoilers_with_the_exception_of_a_single_scene/dtfh8mi/
p1933
sVsubreddit_type
p1934
Vpublic
p1935
sVauthor_flair_css_class
p1936
NsVstickied
p1937
I00
sVauthor
p1938
VZeusThunder369
p1939
sVsubreddit
p1940
Vchangemyview
p1941
sVauthor_flair_text
p1942
V7\u2206
p1943
sVcreated_utc
p1944
I1517258774
sVsubreddit_id
p1945
Vt5_2w2s8
p1946
sVdistinguished
p1947
NsVparent_id
p1948
Vt1_dtfgvrx
p1949
sVscore
p1950
I3
sVis_submitter
p1951
I01
sVgilded
p1952
I0
sVid
p1953
Vdtfh8mi
p1954
sVcan_gild
p1955
I01
sVlink_id
p1956
Vt3_7tu0ft
p1957
sVretrieved_on
p1958
I1518402878
sVcontroversiality
p1959
I0
ssg644
(dp1960
g331
g0
(g604
g2
Ntp1961
Rp1962
(dp1963
g608
S'dtfh8mi'
p1964
sg610
g611
sg612
(dp1965
Vbody
p1966
V&gt; Offering a definition of what 'white privilege' is, especially in such a canned way that was regurgitated rather than natural, is about as obvious SJW as you can get.\u000a\u000aYou.... didn't answer if you'd seen it, and this sentence doesn't relate to anything I remember in the movie at all.  Am I right in assuming you haven't seen it?  If you haven't, please don't keep acting like you have.  If you have, then please tell me exactly what in the movie carried the message you describe?  \u000a\u000a&gt; Sure, but it's still an example\u000a\u000aYour case that it's an example is weak.  It's (apparently) also true to the source material.  \u000a\u000aYou have not clarified at all what 'SJW propaganda' is; you've just provided examples from movies you haven't seen.\u000a\u000a&gt; So lacking a bunch of obvious examples isn't really addressing my view.\u000a\u000aI'm addressing the assumption in your view that 'SJW propaganda' is a meaningful construct.
p1967
sVedited
p1968
I00
sVpermalink
p1969
V/r/changemyview/comments/7tu0ft/cmv_spoilers_with_the_exception_of_a_single_scene/dtfibm7/
p1970
sVsubreddit_type
p1971
Vpublic
p1972
sVauthor_flair_css_class
p1973
NsVstickied
p1974
I00
sVauthor
p1975
VPreacherJudge
p1976
sVsubreddit
p1977
Vchangemyview
p1978
sVauthor_flair_text
p1979
V126\u2206
p1980
sVcreated_utc
p1981
I1517259788
sVsubreddit_id
p1982
Vt5_2w2s8
p1983
sVdistinguished
p1984
NsVparent_id
p1985
Vt1_dtfh8mi
p1986
sVscore
p1987
I1
sVis_submitter
p1988
I00
sVgilded
p1989
I0
sVid
p1990
Vdtfibm7
p1991
sVcan_gild
p1992
I01
sVlink_id
p1993
Vt3_7tu0ft
p1994
sVretrieved_on
p1995
I1518403400
sVcontroversiality
p1996
I0
ssg644
(dp1997
g366
g0
(g604
g2
Ntp1998
Rp1999
(dp2000
g608
S'dtfibm7'
p2001
sg610
g611
sg612
(dp2002
Vbody
p2003
VSo if your point is that SJW propaganda is not a meaningful construct, wouldn't that reinforce my view that it's wrong to label Star Wars as SJW propaganda?
p2004
sVedited
p2005
I00
sVpermalink
p2006
V/r/changemyview/comments/7tu0ft/cmv_spoilers_with_the_exception_of_a_single_scene/dtfkmuz/
p2007
sVsubreddit_type
p2008
Vpublic
p2009
sVauthor_flair_css_class
p2010
NsVstickied
p2011
I00
sVauthor
p2012
VZeusThunder369
p2013
sVsubreddit
p2014
Vchangemyview
p2015
sVauthor_flair_text
p2016
V7\u2206
p2017
sVcreated_utc
p2018
I1517261945
sVsubreddit_id
p2019
Vt5_2w2s8
p2020
sVdistinguished
p2021
NsVparent_id
p2022
Vt1_dtfibm7
p2023
sVscore
p2024
I1
sVis_submitter
p2025
I01
sVgilded
p2026
I0
sVid
p2027
Vdtfkmuz
p2028
sVcan_gild
p2029
I01
sVlink_id
p2030
Vt3_7tu0ft
p2031
sVretrieved_on
p2032
I1518404537
sVcontroversiality
p2033
I0
ssg644
(dp2034
g332
g0
(g604
g2
Ntp2035
Rp2036
(dp2037
g608
S'dtfkmuz'
p2038
sg610
g611
sg612
(dp2039
Vbody
p2040
VYes.  But I would have changed your view in a different way.
p2041
sVedited
p2042
I00
sVpermalink
p2043
V/r/changemyview/comments/7tu0ft/cmv_spoilers_with_the_exception_of_a_single_scene/dtflnz7/
p2044
sVsubreddit_type
p2045
Vpublic
p2046
sVauthor_flair_css_class
p2047
NsVstickied
p2048
I00
sVauthor
p2049
VPreacherJudge
p2050
sVsubreddit
p2051
Vchangemyview
p2052
sVauthor_flair_text
p2053
V126\u2206
p2054
sVcreated_utc
p2055
I1517262920
sVsubreddit_id
p2056
Vt5_2w2s8
p2057
sVdistinguished
p2058
NsVparent_id
p2059
Vt1_dtfkmuz
p2060
sVscore
p2061
I1
sVis_submitter
p2062
I00
sVgilded
p2063
I0
sVid
p2064
Vdtflnz7
p2065
sVcan_gild
p2066
I01
sVlink_id
p2067
Vt3_7tu0ft
p2068
sVretrieved_on
p2069
I1518405045
sVcontroversiality
p2070
I0
ssg644
Nsbssbssbssbssbsg175
g0
(g604
g2
Ntp2071
Rp2072
(dp2073
g608
S'dtffmi3'
p2074
sg610
g611
sg612
(dp2075
Vbody
p2076
VThe line was "I am no man" and was true to the source material.
p2077
sVedited
p2078
I00
sVpermalink
p2079
V/r/changemyview/comments/7tu0ft/cmv_spoilers_with_the_exception_of_a_single_scene/dtfhizt/
p2080
sVsubreddit_type
p2081
Vpublic
p2082
sVauthor_flair_css_class
p2083
NsVstickied
p2084
I00
sVauthor
p2085
VSand_Trout
p2086
sVsubreddit
p2087
Vchangemyview
p2088
sVauthor_flair_text
p2089
V44\u2206
p2090
sVcreated_utc
p2091
I1517259042
sVsubreddit_id
p2092
Vt5_2w2s8
p2093
sVdistinguished
p2094
NsVparent_id
p2095
Vt1_dtffmi3
p2096
sVscore
p2097
I5
sVis_submitter
p2098
I00
sVgilded
p2099
I0
sVid
p2100
Vdtfhizt
p2101
sVcan_gild
p2102
I01
sVlink_id
p2103
Vt3_7tu0ft
p2104
sVretrieved_on
p2105
I1518403017
sVcontroversiality
p2106
I0
ssg644
Nsbssbssbsg206
g0
(g604
g2
Ntp2107
Rp2108
(dp2109
g608
S'dtf95fo'
p2110
sg610
g611
sg612
(dp2111
Vbody
p2112
V&gt; He's Guatemalan. Guatemala =/= European, Mid-East, North African\u000a\u000aThe country you're from has nothing to do with it. It's ancestral descent. A person of European descent born in central Africa is still white. A person of sub-Sahara African descent born in Norway is still black. Guatemala is what makes him Hispanic, but says nothing of his ancestry. You can be a black Guatemalan, a white Guatemalan, or an Asian Guatemalan and you're Hispanic no matter what, but being Guatemalan does not preclude the black, white, Asian part.\u000a\u000a&gt;I stated this because you neglected gender, which is an element of diversity that is being attacked by the anti-SJW crowd when it comes to these films. \u000a\u000aThe point I was addressing was quoted from your post. \u000a\u000a&gt;it does feel like the SWU is going for the most ethnically diverse cast reasonably possible\u000a\u000aThat part does not include gender. That's the part I addressed. Are you saying that it was a misstatement or otherwise did not convey the point you meant?
p2113
sVedited
p2114
I1517251798
sVpermalink
p2115
V/r/changemyview/comments/7tu0ft/cmv_spoilers_with_the_exception_of_a_single_scene/dtf9izi/
p2116
sVsubreddit_type
p2117
Vpublic
p2118
sVauthor_flair_css_class
p2119
NsVstickied
p2120
I00
sVauthor
p2121
V4trezz
p2122
sVsubreddit
p2123
Vchangemyview
p2124
sVauthor_flair_text
p2125
V4\u2206
p2126
sVcreated_utc
p2127
I1517251578
sVsubreddit_id
p2128
Vt5_2w2s8
p2129
sVdistinguished
p2130
NsVparent_id
p2131
Vt1_dtf95fo
p2132
sVscore
p2133
I0
sVis_submitter
p2134
I00
sVgilded
p2135
I0
sVid
p2136
Vdtf9izi
p2137
sVcan_gild
p2138
I01
sVlink_id
p2139
Vt3_7tu0ft
p2140
sVretrieved_on
p2141
I1518399036
sVcontroversiality
p2142
I0
ssg644
(dp2143
g256
g0
(g604
g2
Ntp2144
Rp2145
(dp2146
g608
S'dtf9izi'
p2147
sg610
g611
sg612
(dp2148
Vbody
p2149
V&gt; That part does not include gender. That's the part I addressed. Are you now saying that it was a misstatement or otherwise did not convey the point you meant?\u000a\u000aAnd as I've explained, you've chosen to very selectively address the issue, because the backlash against the films has to do with gender just as much as it has to do with race. It is neither a misstatement or poor conveyor of my point - you have narrowed the scope of your discussion to the point where it does not encompass the topic at hand, and I've pointed this out. \u000a\u000a&gt;The country you're from has nothing to do with it. It's ancestral descent. A person of European descent born in central Africa is still white.\u000a\u000aHe was born in America. He is of Guatemalan (and Cuban) descent. Can you please stop arguing a position that is easily defeated by a Google search?\u000a\u000a\u000a
p2150
sVedited
p2151
I00
sVpermalink
p2152
V/r/changemyview/comments/7tu0ft/cmv_spoilers_with_the_exception_of_a_single_scene/dtf9p2c/
p2153
sVsubreddit_type
p2154
Vpublic
p2155
sVauthor_flair_css_class
p2156
NsVstickied
p2157
I00
sVauthor
p2158
Vworldeditor
p2159
sVsubreddit
p2160
Vchangemyview
p2161
sVauthor_flair_text
p2162
V3\u2206
p2163
sVcreated_utc
p2164
I1517251732
sVsubreddit_id
p2165
Vt5_2w2s8
p2166
sVdistinguished
p2167
NsVparent_id
p2168
Vt1_dtf9izi
p2169
sVscore
p2170
I2
sVis_submitter
p2171
I00
sVgilded
p2172
I0
sVid
p2173
Vdtf9p2c
p2174
sVcan_gild
p2175
I01
sVlink_id
p2176
Vt3_7tu0ft
p2177
sVretrieved_on
p2178
I1518399120
sVcontroversiality
p2179
I0
ssg644
(dp2180
g207
g0
(g604
g2
Ntp2181
Rp2182
(dp2183
g608
S'dtf9p2c'
p2184
sg610
g611
sg612
(dp2185
Vbody
p2186
V&gt; And as I've explained, you've chosen to very selectively address the issue, because the backlash against the films has to do with gender just as much as it has to do with race\u000a\u000aYou said "as ethnically diverse as possible." I am asking about that specific language which you used. You refuse to address it at all. Surely you either believe that specific point or acknowledge that it was a misstatement. "Ethnically diverse" does not include gender. I am asking who else you consider "ethnically diverse."\u000a\u000a&gt;He was born in America. He is of Guatemalan (and Cuban) descent. Can you please stop arguing a position that is easily defeated by a Google search?\u000a\u000aFine, Cuban and Guatemalan descent... Which have significant European influence and large populations of European descendants. Cuban and Guatemalan does not mean non-white. For my part, I acknowledge that I improperly interchanged ethnicity and race.... But you're still absolutely wrong that being Guatemalan and Cuban means he is not white.\u000a\u000ahttps://en.wikipedia.org/wiki/White_Hispanic_and_Latino_Americans\u000a
p2187
sVedited
p2188
I1517252639
sVpermalink
p2189
V/r/changemyview/comments/7tu0ft/cmv_spoilers_with_the_exception_of_a_single_scene/dtfa4j2/
p2190
sVsubreddit_type
p2191
Vpublic
p2192
sVauthor_flair_css_class
p2193
NsVstickied
p2194
I00
sVauthor
p2195
V4trezz
p2196
sVsubreddit
p2197
Vchangemyview
p2198
sVauthor_flair_text
p2199
V4\u2206
p2200
sVcreated_utc
p2201
I1517252123
sVsubreddit_id
p2202
Vt5_2w2s8
p2203
sVdistinguished
p2204
NsVparent_id
p2205
Vt1_dtf9p2c
p2206
sVscore
p2207
I1
sVis_submitter
p2208
I00
sVgilded
p2209
I0
sVid
p2210
Vdtfa4j2
p2211
sVcan_gild
p2212
I01
sVlink_id
p2213
Vt3_7tu0ft
p2214
sVretrieved_on
p2215
I1518399329
sVcontroversiality
p2216
I0
ssg644
(dp2217
g469
g0
(g604
g2
Ntp2218
Rp2219
(dp2220
g608
S'dtfa4j2'
p2221
sg610
g611
sg612
(dp2222
Vbody
p2223
VYou realize that people with the same skin colors can come from a lot of different places, right? Places with radically different cultures and social norms?\u000a\u000aFor a big budget movie to prominantly display both a female protagonist (one who defys a lot of female character movie tropes), a black male lead, a hispanic male lead, multiple female supporting characters (including ones of asian descent), I would consider that to be pretty diverse.\u000a\u000aWhat is your definition of diverse?
p2224
sVedited
p2225
I00
sVpermalink
p2226
V/r/changemyview/comments/7tu0ft/cmv_spoilers_with_the_exception_of_a_single_scene/dtfb17c/
p2227
sVsubreddit_type
p2228
Vpublic
p2229
sVauthor_flair_css_class
p2230
NsVstickied
p2231
I00
sVauthor
p2232
VUNRThrowAway
p2233
sVsubreddit
p2234
Vchangemyview
p2235
sVauthor_flair_text
p2236
V1\u2206
p2237
sVcreated_utc
p2238
I1517252962
sVsubreddit_id
p2239
Vt5_2w2s8
p2240
sVdistinguished
p2241
NsVparent_id
p2242
Vt1_dtfa4j2
p2243
sVscore
p2244
I2
sVis_submitter
p2245
I00
sVgilded
p2246
I0
sVid
p2247
Vdtfb17c
p2248
sVcan_gild
p2249
I01
sVlink_id
p2250
Vt3_7tu0ft
p2251
sVretrieved_on
p2252
I1518399823
sVcontroversiality
p2253
I0
ssg644
(dp2254
g209
g0
(g604
g2
Ntp2255
Rp2256
(dp2257
g608
S'dtfb17c'
p2258
sg610
g611
sg612
(dp2259
Vbody
p2260
V&gt; You realize that people with the same skin colors can come from a lot of different places, right? Places with radically different cultures and social norms?\u000a\u000aThat's *my* point. What I'm getting form the other user is basically that being Cuban and Guatemalan precludes being white, which I am arguing against.\u000a\u000aI am not saying it is not diverse, I am saying that I don't see how it can "feel like they are going for the **most ethnically diverse** cast reasonably possible" when most of the main characters are still white.\u000a\u000a
p2261
sVedited
p2262
I1517259791
sVpermalink
p2263
V/r/changemyview/comments/7tu0ft/cmv_spoilers_with_the_exception_of_a_single_scene/dtfbznu/
p2264
sVsubreddit_type
p2265
Vpublic
p2266
sVauthor_flair_css_class
p2267
NsVstickied
p2268
I00
sVauthor
p2269
V4trezz
p2270
sVsubreddit
p2271
Vchangemyview
p2272
sVauthor_flair_text
p2273
V4\u2206
p2274
sVcreated_utc
p2275
I1517253857
sVsubreddit_id
p2276
Vt5_2w2s8
p2277
sVdistinguished
p2278
NsVparent_id
p2279
Vt1_dtfb17c
p2280
sVscore
p2281
I1
sVis_submitter
p2282
I00
sVgilded
p2283
I0
sVid
p2284
Vdtfbznu
p2285
sVcan_gild
p2286
I01
sVlink_id
p2287
Vt3_7tu0ft
p2288
sVretrieved_on
p2289
I1518400290
sVcontroversiality
p2290
I0
ssg644
Nsbssbsg257
g0
(g604
g2
Ntp2291
Rp2292
(dp2293
g608
S'dtfa4j2'
p2294
sg610
g611
sg612
(dp2295
Vbody
p2296
V&gt;You said "ethnically diverse." I am asking about that specific language. Surely you either believe that specific point or acknowledge that it was a misstatement. \u000a\u000aI never typed the words "ethnically diverse." I am not /u/UNRThrowaway. I am a different user. I did not write the specific language you are asking about. Please keep up with who you are replying to. \u000a\u000a&gt;You misunderstand racial categories. Fine, Cuban and Guatemalan descent... Which have significant European influence and large populations of European descendants.\u000a\u000aThis doesn't make people from Guatemala or Cuba white. Oscar Issac is not white. Your own source describes it as "having origins in any of the original peoples of Europe, the Middle East, or North Africa" which does not describe Issac's parents. His dominant lineage is decidedly *nonwhite*. \u000a\u000a
p2297
sVedited
p2298
I00
sVpermalink
p2299
V/r/changemyview/comments/7tu0ft/cmv_spoilers_with_the_exception_of_a_single_scene/dtfas2s/
p2300
sVsubreddit_type
p2301
Vpublic
p2302
sVauthor_flair_css_class
p2303
NsVstickied
p2304
I00
sVauthor
p2305
Vworldeditor
p2306
sVsubreddit
p2307
Vchangemyview
p2308
sVauthor_flair_text
p2309
V3\u2206
p2310
sVcreated_utc
p2311
I1517252719
sVsubreddit_id
p2312
Vt5_2w2s8
p2313
sVdistinguished
p2314
NsVparent_id
p2315
Vt1_dtfa4j2
p2316
sVscore
p2317
I2
sVis_submitter
p2318
I00
sVgilded
p2319
I0
sVid
p2320
Vdtfas2s
p2321
sVcan_gild
p2322
I01
sVlink_id
p2323
Vt3_7tu0ft
p2324
sVretrieved_on
p2325
I1518399700
sVcontroversiality
p2326
I0
ssg644
(dp2327
g208
g0
(g604
g2
Ntp2328
Rp2329
(dp2330
g608
S'dtfas2s'
p2331
sg610
g611
sg612
(dp2332
Vbody
p2333
VYou're right, my mistake. I thought you were the same user. But I still only addressed that one specific part, I don't know why you jumped in to steer is to gender.\u000a\u000a&gt;This doesn't make people from Guatemala or Cuba white\u000a\u000aOf course not, but it doesn't make them non-white either.\u000a\u000a&gt;which does not describe Issac's parents. His dominant lineage is decidedly nonwhite. \u000a\u000aI will believe you if you have a source. But it feels like you're saying basically "his parents are Cuban and Guatemalan, so they're not European," which is not the issue. "Having origins" does not mean only your parents.
p2334
sVedited
p2335
I00
sVpermalink
p2336
V/r/changemyview/comments/7tu0ft/cmv_spoilers_with_the_exception_of_a_single_scene/dtfb7qw/
p2337
sVsubreddit_type
p2338
Vpublic
p2339
sVauthor_flair_css_class
p2340
NsVstickied
p2341
I00
sVauthor
p2342
V4trezz
p2343
sVsubreddit
p2344
Vchangemyview
p2345
sVauthor_flair_text
p2346
V4\u2206
p2347
sVcreated_utc
p2348
I1517253130
sVsubreddit_id
p2349
Vt5_2w2s8
p2350
sVdistinguished
p2351
NsVparent_id
p2352
Vt1_dtfas2s
p2353
sVscore
p2354
I1
sVis_submitter
p2355
I00
sVgilded
p2356
I0
sVid
p2357
Vdtfb7qw
p2358
sVcan_gild
p2359
I01
sVlink_id
p2360
Vt3_7tu0ft
p2361
sVretrieved_on
p2362
I1518399910
sVcontroversiality
p2363
I0
ssg644
(dp2364
g258
g0
(g604
g2
Ntp2365
Rp2366
(dp2367
g608
S'dtfb7qw'
p2368
sg610
g611
sg612
(dp2369
Vbody
p2370
V&gt;I will believe you if you have a source.\u000a\u000aJust look at his Wikipedia page? What do you consider a "source?"\u000a
p2371
sVedited
p2372
I00
sVpermalink
p2373
V/r/changemyview/comments/7tu0ft/cmv_spoilers_with_the_exception_of_a_single_scene/dtfc24v/
p2374
sVsubreddit_type
p2375
Vpublic
p2376
sVauthor_flair_css_class
p2377
NsVstickied
p2378
I00
sVauthor
p2379
Vworldeditor
p2380
sVsubreddit
p2381
Vchangemyview
p2382
sVauthor_flair_text
p2383
V3\u2206
p2384
sVcreated_utc
p2385
I1517253918
sVsubreddit_id
p2386
Vt5_2w2s8
p2387
sVdistinguished
p2388
NsVparent_id
p2389
Vt1_dtfb7qw
p2390
sVscore
p2391
I1
sVis_submitter
p2392
I00
sVgilded
p2393
I0
sVid
p2394
Vdtfc24v
p2395
sVcan_gild
p2396
I01
sVlink_id
p2397
Vt3_7tu0ft
p2398
sVretrieved_on
p2399
I1518400322
sVcontroversiality
p2400
I0
ssg644
(dp2401
g210
g0
(g604
g2
Ntp2402
Rp2403
(dp2404
g608
S'dtfc24v'
p2405
sg610
g611
sg612
(dp2406
Vbody
p2407
VThe only thing that speaks to his ancestral heritage is that his grandfather was French. France = Europe = white if origins there. So I don't know what you're going for unless you are still misunderstanding racial categorization. The family doesn't become non-white by moving to Cuba for a generation.\u000a\u000aAgain, Guatemalan and Cuban does not preclude whiteness. 85% of Cuban-Americans are white.
p2408
sVedited
p2409
I1517254319
sVpermalink
p2410
V/r/changemyview/comments/7tu0ft/cmv_spoilers_with_the_exception_of_a_single_scene/dtfc9xp/
p2411
sVsubreddit_type
p2412
Vpublic
p2413
sVauthor_flair_css_class
p2414
NsVstickied
p2415
I00
sVauthor
p2416
V4trezz
p2417
sVsubreddit
p2418
Vchangemyview
p2419
sVauthor_flair_text
p2420
V4\u2206
p2421
sVcreated_utc
p2422
I1517254124
sVsubreddit_id
p2423
Vt5_2w2s8
p2424
sVdistinguished
p2425
NsVparent_id
p2426
Vt1_dtfc24v
p2427
sVscore
p2428
I1
sVis_submitter
p2429
I00
sVgilded
p2430
I0
sVid
p2431
Vdtfc9xp
p2432
sVcan_gild
p2433
I01
sVlink_id
p2434
Vt3_7tu0ft
p2435
sVretrieved_on
p2436
I1518400428
sVcontroversiality
p2437
I0
ssg644
(dp2438
g259
g0
(g604
g2
Ntp2439
Rp2440
(dp2441
g608
S'dtfc9xp'
p2442
sg610
g611
sg612
(dp2443
Vbody
p2444
VWhat do you consider a "source?"
p2445
sVedited
p2446
I00
sVpermalink
p2447
V/r/changemyview/comments/7tu0ft/cmv_spoilers_with_the_exception_of_a_single_scene/dtfcnes/
p2448
sVsubreddit_type
p2449
Vpublic
p2450
sVauthor_flair_css_class
p2451
NsVstickied
p2452
I00
sVauthor
p2453
Vworldeditor
p2454
sVsubreddit
p2455
Vchangemyview
p2456
sVauthor_flair_text
p2457
V3\u2206
p2458
sVcreated_utc
p2459
I1517254474
sVsubreddit_id
p2460
Vt5_2w2s8
p2461
sVdistinguished
p2462
NsVparent_id
p2463
Vt1_dtfc9xp
p2464
sVscore
p2465
I1
sVis_submitter
p2466
I00
sVgilded
p2467
I0
sVid
p2468
Vdtfcnes
p2469
sVcan_gild
p2470
I01
sVlink_id
p2471
Vt3_7tu0ft
p2472
sVretrieved_on
p2473
I1518400608
sVcontroversiality
p2474
I0
ssg644
(dp2475
g211
g0
(g604
g2
Ntp2476
Rp2477
(dp2478
g608
S'dtfcnes'
p2479
sg610
g611
sg612
(dp2480
Vbody
p2481
VAnything that would speak to original heritage. I feel like we have a disconnect here that I would like to clear up.\u000a\u000aCubans are mostly white, 85%. This is because people of European descent "took over" whatever native Cuban population there was. About 40% of Guatemalans are white. There was less European influence on Guatemala than Cuba. \u000a\u000aJamaicans are mostly black because their current population mostly descends from African slaves. Mexicans (if I recall correctly) mostly descend from natives of the New World.\u000a\u000aSaying "he is Guatemalan and Cuban" means absolutely nothing definitive as far as race is concerned. A source that I would welcome would say what his ancestry is, whether that is native, black, white, whatever. \u000a\u000aWithout a source to say otherwise and given that 85% of Cuban Americans are white, I don't think it's unfair to say that his Cuban roots are more likely white than not. It's not "decidedly nonwhite" by any stretch.\u000a\u000aThe Guatemalan part is not so one-sided. At 40% white, it's a little more likely that those roots are non-white than white. But 40% is still a significant portion.\u000a\u000aThe bottom line is that you seem to be saying that Guatemalan and Cuban means non-white, which it most definitely does not. If that is not what you intend, please correct me.
p2482
sVedited
p2483
I00
sVpermalink
p2484
V/r/changemyview/comments/7tu0ft/cmv_spoilers_with_the_exception_of_a_single_scene/dtfdoi0/
p2485
sVsubreddit_type
p2486
Vpublic
p2487
sVauthor_flair_css_class
p2488
NsVstickied
p2489
I00
sVauthor
p2490
V4trezz
p2491
sVsubreddit
p2492
Vchangemyview
p2493
sVauthor_flair_text
p2494
V4\u2206
p2495
sVcreated_utc
p2496
I1517255442
sVsubreddit_id
p2497
Vt5_2w2s8
p2498
sVdistinguished
p2499
NsVparent_id
p2500
Vt1_dtfcnes
p2501
sVscore
p2502
I1
sVis_submitter
p2503
I00
sVgilded
p2504
I0
sVid
p2505
Vdtfdoi0
p2506
sVcan_gild
p2507
I01
sVlink_id
p2508
Vt3_7tu0ft
p2509
sVretrieved_on
p2510
I1518401118
sVcontroversiality
p2511
I0
ssg644
(dp2512
g260
g0
(g604
g2
Ntp2513
Rp2514
(dp2515
g608
S'dtfdoi0'
p2516
sg610
g611
sg612
(dp2517
Vbody
p2518
V&gt; Anything that would speak to heritage.\u000a\u000a[Okay.](http://ethnicelebs.com/oscar-isaac)\u000a\u000a&gt;The bottom line is that you seem to be saying that Guatemalan and Cuban means non-white, which it most definitely does not.\u000a\u000aI am saying that the specific human being Oscar Isaac is nonwhite. \u000a\u000a&gt;If that is not what you intend, please correct me.\u000a\u000aDone. \u000a \u000a\u000a
p2519
sVedited
p2520
I00
sVpermalink
p2521
V/r/changemyview/comments/7tu0ft/cmv_spoilers_with_the_exception_of_a_single_scene/dtfdtkj/
p2522
sVsubreddit_type
p2523
Vpublic
p2524
sVauthor_flair_css_class
p2525
NsVstickied
p2526
I00
sVauthor
p2527
Vworldeditor
p2528
sVsubreddit
p2529
Vchangemyview
p2530
sVauthor_flair_text
p2531
V3\u2206
p2532
sVcreated_utc
p2533
I1517255574
sVsubreddit_id
p2534
Vt5_2w2s8
p2535
sVdistinguished
p2536
NsVparent_id
p2537
Vt1_dtfdoi0
p2538
sVscore
p2539
I1
sVis_submitter
p2540
I00
sVgilded
p2541
I0
sVid
p2542
Vdtfdtkj
p2543
sVcan_gild
p2544
I01
sVlink_id
p2545
Vt3_7tu0ft
p2546
sVretrieved_on
p2547
I1518401189
sVcontroversiality
p2548
I0
ssg644
(dp2549
g212
g0
(g604
g2
Ntp2550
Rp2551
(dp2552
g608
S'dtfdtkj'
p2553
sg610
g611
sg612
(dp2554
Vbody
p2555
VAll it says is Guatemalan, Cuban, French, and Jewish. \u000a\u000aGuatemalan and Cuban still does not mean nonwhite, no matter how many times you bring it up. It's kind of frustrating that you just ignored my entire last comment explaining this. \u000a\u000aJews come from the Mid-East/North Africa, which is white. \u000a\u000aBTW I apparently edited to "original heritage" after you already quoted me. But still, I think my lengthy comment explaining it should have been instructive enough.\u000a\u000aEdit. I don't even care about this guy in particular anymore, but you need to understand that "Guatemalan" and "Cuban" do not mean "nonwhite." That's the issue here. You keep just pointing to things that say Cuban and Guatemalan as evidence that he is not white. Please read my previous comment and the Wikipedia page I posted earlier about white Hispanics. \u000a
p2556
sVedited
p2557
I1517259547
sVpermalink
p2558
V/r/changemyview/comments/7tu0ft/cmv_spoilers_with_the_exception_of_a_single_scene/dtfed60/
p2559
sVsubreddit_type
p2560
Vpublic
p2561
sVauthor_flair_css_class
p2562
NsVstickied
p2563
I00
sVauthor
p2564
V4trezz
p2565
sVsubreddit
p2566
Vchangemyview
p2567
sVauthor_flair_text
p2568
V4\u2206
p2569
sVcreated_utc
p2570
I1517256085
sVsubreddit_id
p2571
Vt5_2w2s8
p2572
sVdistinguished
p2573
NsVparent_id
p2574
Vt1_dtfdtkj
p2575
sVscore
p2576
I2
sVis_submitter
p2577
I00
sVgilded
p2578
I0
sVid
p2579
Vdtfed60
p2580
sVcan_gild
p2581
I01
sVlink_id
p2582
Vt3_7tu0ft
p2583
sVretrieved_on
p2584
I1518401459
sVcontroversiality
p2585
I0
ssg644
Nsbssbssbssbssbssbssbssbssbssbssbsg350
g0
(g604
g2
Ntp2586
Rp2587
(dp2588
g608
S'dtf63hu'
p2589
sg610
g611
sg612
(dp2590
Vbody
p2591
V&gt; This is a different claim than your premise, which is "there is no SJW propaganda in Star Wars." The former does not entail the latter. You defend your position that the propaganda isn't present, but you don't support your final statement that anyone who views it that way is uncomfortable with minorities. \u000a\u000aFair enough. There isn't SJW propaganda in the movie, thus anyone who claims that there is *must* be uncomfortable with the amount of not-white male characters in the film. It's the most likely explanation.\u000a\u000a&gt; There is no Mary Sue issue.\u000a\u000aSure, I don't disagree it's just not really a central part of my view. I can at least understand why someone may think the character is a Mary Sue. Regardless, it's not SJW propaganda.
p2592
sVedited
p2593
I00
sVpermalink
p2594
V/r/changemyview/comments/7tu0ft/cmv_spoilers_with_the_exception_of_a_single_scene/dtf6m4h/
p2595
sVsubreddit_type
p2596
Vpublic
p2597
sVauthor_flair_css_class
p2598
NsVstickied
p2599
I00
sVauthor
p2600
VZeusThunder369
p2601
sVsubreddit
p2602
Vchangemyview
p2603
sVauthor_flair_text
p2604
V7\u2206
p2605
sVcreated_utc
p2606
I1517248941
sVsubreddit_id
p2607
Vt5_2w2s8
p2608
sVdistinguished
p2609
NsVparent_id
p2610
Vt1_dtf63hu
p2611
sVscore
p2612
I0
sVis_submitter
p2613
I01
sVgilded
p2614
I0
sVid
p2615
Vdtf6m4h
p2616
sVcan_gild
p2617
I01
sVlink_id
p2618
Vt3_7tu0ft
p2619
sVretrieved_on
p2620
I1518397587
sVcontroversiality
p2621
I0
ssg644
(dp2622
g252
g0
(g604
g2
Ntp2623
Rp2624
(dp2625
g608
S'dtf6m4h'
p2626
sg610
g611
sg612
(dp2627
Vbody
p2628
V&gt;There isn't SJW propaganda in the movie, thus anyone who claims that there is must be uncomfortable with the amount of not-white male characters in the film.\u000a\u000aYou contend that there is *no* reason that someone could see SJW propaganda in the film aside from their own internalized racism/misogyny? \u000a\u000aYou say "must," but then follow it up with "most likely" so could you please clarify your actual position?\u000a\u000a\u000a\u000a
p2629
sVedited
p2630
I00
sVpermalink
p2631
V/r/changemyview/comments/7tu0ft/cmv_spoilers_with_the_exception_of_a_single_scene/dtf6uga/
p2632
sVsubreddit_type
p2633
Vpublic
p2634
sVauthor_flair_css_class
p2635
NsVstickied
p2636
I00
sVauthor
p2637
Vworldeditor
p2638
sVsubreddit
p2639
Vchangemyview
p2640
sVauthor_flair_text
p2641
V3\u2206
p2642
sVcreated_utc
p2643
I1517249151
sVsubreddit_id
p2644
Vt5_2w2s8
p2645
sVdistinguished
p2646
NsVparent_id
p2647
Vt1_dtf6m4h
p2648
sVscore
p2649
I3
sVis_submitter
p2650
I00
sVgilded
p2651
I0
sVid
p2652
Vdtf6uga
p2653
sVcan_gild
p2654
I01
sVlink_id
p2655
Vt3_7tu0ft
p2656
sVretrieved_on
p2657
I1518397702
sVcontroversiality
p2658
I0
ssg644
(dp2659
g352
g0
(g604
g2
Ntp2660
Rp2661
(dp2662
g608
S'dtf6uga'
p2663
sg610
g611
sg612
(dp2664
Vbody
p2665
VWe are getting outside the realm of my view here, fyi.\u000a\u000aThere is no *reasonable* reason someone could proclaim there is SJW propaganda in the new Star Wars.\u000a\u000aThe most likely reason someone *is* seeing "SJW" propaganda in Star Wars, is simply because of the casting decisions. They see a bunch of not white/male prominent characters, and automatically assume it's an SJW movie without every analyzing the actual content of the film.
p2666
sVedited
p2667
I00
sVpermalink
p2668
V/r/changemyview/comments/7tu0ft/cmv_spoilers_with_the_exception_of_a_single_scene/dtf71u8/
p2669
sVsubreddit_type
p2670
Vpublic
p2671
sVauthor_flair_css_class
p2672
NsVstickied
p2673
I00
sVauthor
p2674
VZeusThunder369
p2675
sVsubreddit
p2676
Vchangemyview
p2677
sVauthor_flair_text
p2678
V7\u2206
p2679
sVcreated_utc
p2680
I1517249337
sVsubreddit_id
p2681
Vt5_2w2s8
p2682
sVdistinguished
p2683
NsVparent_id
p2684
Vt1_dtf6uga
p2685
sVscore
p2686
I2
sVis_submitter
p2687
I01
sVgilded
p2688
I0
sVid
p2689
Vdtf71u8
p2690
sVcan_gild
p2691
I01
sVlink_id
p2692
Vt3_7tu0ft
p2693
sVretrieved_on
p2694
I1518397804
sVcontroversiality
p2695
I0
ssg644
(dp2696
g253
g0
(g604
g2
Ntp2697
Rp2698
(dp2699
g608
S'dtf71u8'
p2700
sg610
g611
sg612
(dp2701
Vbody
p2702
V&gt; We are getting outside the realm of my view here, fyi\u000a\u000aIf it's outside the realm of your view, why did you include it in your post? \u000a\u000a&gt;There is no reasonable reason someone could proclaim there is SJW propaganda in the new Star Wars.\u000a\u000aOkay. I think it is perfectly reasonable for someone who, like you, "detests SJW propaganda" to (1) give a cursory read to some sites/articles that proclaim the existence of SJW propaganda, (2) view the film and notice the moments they'd read about, (3) apply none of the further scrutiny that you have and conclude "yup, there is SJW propaganda in StarWars" and carry on with that opinion. \u000a\u000aI don't know that this is a *correct* or *intellectually honest* way to interpret the film, nor do I reject that those who first pushed forth the narrative that the films are SJW propaganda did so for the reasons you mention, but it seems entirely *reasonable* to me that someone would inattentively consume &amp; regurgitate the narrative from their typical media diet without any further analysis. Such a positon would have nothing to do with their distaste for seeing "too few white people," as they didn't apply any scrutiny to the film at all, let alone enough to form an opinion on the casting choices. \u000a\u000a\u000a\u000a
p2703
sVedited
p2704
I00
sVpermalink
p2705
V/r/changemyview/comments/7tu0ft/cmv_spoilers_with_the_exception_of_a_single_scene/dtf7g4i/
p2706
sVsubreddit_type
p2707
Vpublic
p2708
sVauthor_flair_css_class
p2709
NsVstickied
p2710
I00
sVauthor
p2711
Vworldeditor
p2712
sVsubreddit
p2713
Vchangemyview
p2714
sVauthor_flair_text
p2715
V3\u2206
p2716
sVcreated_utc
p2717
I1517249698
sVsubreddit_id
p2718
Vt5_2w2s8
p2719
sVdistinguished
p2720
NsVparent_id
p2721
Vt1_dtf71u8
p2722
sVscore
p2723
I1
sVis_submitter
p2724
I00
sVgilded
p2725
I0
sVid
p2726
Vdtf7g4i
p2727
sVcan_gild
p2728
I01
sVlink_id
p2729
Vt3_7tu0ft
p2730
sVretrieved_on
p2731
I1518397999
sVcontroversiality
p2732
I0
ssg644
Nsbsg62
g0
(g604
g2
Ntp2733
Rp2734
(dp2735
g608
S'dtf71u8'
p2736
sg610
g611
sg612
(dp2737
Vbody
p2738
V&gt;The most likely reason someone is seeing "SJW" propaganda in Star Wars, is simply because of the casting decisions. They see a bunch of not white/male prominent characters, and automatically assume it's an SJW movie without every analyzing the actual content of the film.\u000a\u000aThis is where you're building up a strawman. \u000a\u000aWe can disagree about whether they are true, but there are plenty of other reasons which are "reasonable". For example, Episode 8 had explicit scenes where the *entire point* was to emphasize Admiral Holdo's contempt for Poe Dameron *because he is a man*, and she doesn't need men bossing her around. Again, we can argue about whether this was in fact pointless--since this male/female dynamic is arguably incredibly commonplace and thus serves as a perfectly reasonable point of divisiveness/conflict for a female admiral and a male subordinate. However, it is a **reasonable** starting point for discussion, and it is a **reasonable** critique that it was simply wearing your views on social justice on your sleeves. \u000a\u000aWhat about Rey's training? When did she struggle? We remember that Luke's struggle on Dagobah included his tendency to be impatient, or his tendency to ask too many questions, or his inability to truly believe in the Force. What was Rey's struggle? Trying to redeem Luke? Trying to redeem Kylo Ren? You see what I mean? Her struggles are only defined by other characters: she is a boring character who has no real obstacles to overcome *within herself*. Her training consisted of nothing except practicing with a lightsaber and a single instance of picking up pebbles. Was she practicing with a lightsaber *because she'd been shown to be struggling with it*? Did we ever see her fail at picking up the pebbles? What was the point of the practice? Did she learn anything? Again, her character has no definition: all of her actions and supposed "conflicts" are shallow and pointless. It is reasonable to become frustrated with her character, because it seems as if it was written explicitly as a *strong female character* without making her a *strong character*, which creates a badly written movie overall. \u000a\u000aAnd by the way, therein lies my biggest problem: the bad writing. You want to know what movie *didn't* see a lot of SJW complaints? Rogue One. Your argument is that audiences are obsessed with casting. Here's one for you: Rogue One saw an incredibly strong female character, a black rebel, someone who was either hispanic or eastern european, an Arab, two Asian men, and plenty of black and brown troops. Moreover, *all* the minority characters had unapologetically strong accents: they were not whitewashed in any way at all. All the villains were white. Yet we didn't see nearly as much backlash to Rogue One as we have seen with Star Wars 7 &amp; 8. Now why is that?\u000a\u000aI would argue that the backlash to the "SJW propoganda" comes from the fact that it seems to have occurred *to the detriment of good writing*. Rogue One is one of those rare, beautiful movies where I actually *can't* see the leading character being anything but female: it's a movie designed for having a lead woman, and it was executed perfectly. The minority cast added so much depth: the diversity of the cast was an immersive experience for me, and I think it would have been a more boring movie without those decisions. The frustration with Star Wars and Rey as a Mary Sue doesn't come from the fact that she's a woman, it comes from the fact that she's a *boring, one-dimensional, horribly written character who doesn't face any conflict or obstacles to becoming great*. The frustration to Admiral Holdo doesn't come from her being a woman, it comes from her being a *badly written commander whose motivations seem to stem from absolutely nothing except for her contempt of men*. Leia was a beloved military commander because her character actually gave a shit about her cause, her people, and the strategy with which the rebels pursued their goals. She was exceptionally capable and stood on her own two feet: the brief moment where she ridicules Han for getting cocky about escaping in episode 4 was perfectly executed, in that it demonstrated Leia's focus and instincts as a military commander. She put Han in his place and sucked out his hubris in that moment, since Leia knew that their escape was too easy and they were likely being tracked. The fact that she clashed with men where she would get visibly frustrated at the hubris of men--such as during her rescue in the Death Star during episode 4--was never something fans complained about *because her character stood solidly on its own ground* rather than her character being defined simply in opposition to the men around her. \u000a\u000aWe want good characters. Admiral Holdo could have been an amazing character. We could have seen her provide stoic, patient leadership behind the scenes as we followed Poe's wild goose chase. I would have even been fine with wearing her contempt and experience with men on her sleeve: again, this is a very common experience for women and it can absolutely serve as a foundation for a character. A mistrust of men and a history of having terrible experiences with arrogant men serves as a really good sympathetic flaw: it's something we can understand about her and maybe even appreciate, even if it does cause her problems. But *this only works if she has other qualities as well*, such as strong leadership. The problem is that we never see Holdo *do* anything! I would have wanted to see her clearly planning something (rather than just having pointless meetings, or just showing her brooding at the window aimlessly) but refusing to divulge it to either us as the audience or to Poe--importantly, even as we *know* she's clearly up to something and planning something. I would have wanted a better reason for her not to tell Poe the plan: for example, having a plan that would only work if no one knew about it until the last minute (e.g. the First Order might have caught wind of it somehow, idk.). Give me *something*. \u000a\u000aBut no. We got nothing. We got lazy writing, boring characters, and entire backstories that are motivated by *nothing* except for making social commentary. The reason people are frustrated and are calling this "SJW propaganda" is because *we can't find anything else to call it*. If it were just a terribly written movie, then we'd call it a shitty movie. But clearly some thought and care and planning went into the social commentary, right? So that's the frustration: we're venting our frustration that all the thought and care went into social commentary rather than a well written movie. Hence, "SJW propaganda".
p2739
sVedited
p2740
I1517254968
sVpermalink
p2741
V/r/changemyview/comments/7tu0ft/cmv_spoilers_with_the_exception_of_a_single_scene/dtfblid/
p2742
sVsubreddit_type
p2743
Vpublic
p2744
sVauthor_flair_css_class
p2745
NsVstickied
p2746
I00
sVauthor
p2747
Vtheres_a_snake_in_me
p2748
sVsubreddit
p2749
Vchangemyview
p2750
sVauthor_flair_text
p2751
V9\u2206
p2752
sVcreated_utc
p2753
I1517253490
sVsubreddit_id
p2754
Vt5_2w2s8
p2755
sVdistinguished
p2756
NsVparent_id
p2757
Vt1_dtf71u8
p2758
sVscore
p2759
I4
sVis_submitter
p2760
I00
sVgilded
p2761
I0
sVid
p2762
Vdtfblid
p2763
sVcan_gild
p2764
I01
sVlink_id
p2765
Vt3_7tu0ft
p2766
sVretrieved_on
p2767
I1518400095
sVcontroversiality
p2768
I0
ssg644
(dp2769
g363
g0
(g604
g2
Ntp2770
Rp2771
(dp2772
g608
S'dtfblid'
p2773
sg610
g611
sg612
(dp2774
Vbody
p2775
V&gt; because he is a man\u000a\u000aWait, at what point is his gender brought up or implied? If this was the case, I'd expect some "I'm tired of all you **men** thinking you can just blow stuff up to solve problems!" or something like that.\u000a\u000a&gt; What was Rey's struggle?\u000a\u000aDo we ask this in circumstances of male characters in action movies just being inhumanely skilled with no backstory or explanation? This is a common trope in movies that is seen outside of Star Wars all the time. Not saying it's definitely not true or isn't a problem, just that it isn't a SJW/gender issue.\u000a\u000a&gt;  A mistrust of men and a history of having terrible experiences with arrogant men\u000a\u000aSame as first question. I'm with you if it was there, but I don't recall seeing it.\u000a\u000aGranted, the movie just wasn't very good at all so I certainly could have missed this. What line of dialogue implied that Poe is the way he is because of his gender?\u000a\u000a&gt; is because we can't find anything else to call it\u000a\u000aReally? How about *serviceable* (in the bad way)? How about *disjointed* (because of switching directors)? How about *safe*?
p2776
sVedited
p2777
I00
sVpermalink
p2778
V/r/changemyview/comments/7tu0ft/cmv_spoilers_with_the_exception_of_a_single_scene/dtfetg6/
p2779
sVsubreddit_type
p2780
Vpublic
p2781
sVauthor_flair_css_class
p2782
NsVstickied
p2783
I00
sVauthor
p2784
VZeusThunder369
p2785
sVsubreddit
p2786
Vchangemyview
p2787
sVauthor_flair_text
p2788
V7\u2206
p2789
sVcreated_utc
p2790
I1517256515
sVsubreddit_id
p2791
Vt5_2w2s8
p2792
sVdistinguished
p2793
NsVparent_id
p2794
Vt1_dtfblid
p2795
sVscore
p2796
I5
sVis_submitter
p2797
I01
sVgilded
p2798
I0
sVid
p2799
Vdtfetg6
p2800
sVcan_gild
p2801
I01
sVlink_id
p2802
Vt3_7tu0ft
p2803
sVretrieved_on
p2804
I1518401684
sVcontroversiality
p2805
I0
ssg644
Nsbssbssbssbssbsg388
g0
(g604
g2
Ntp2806
Rp2807
(dp2808
g608
S'dtfgd0k'
p2809
sg610
g611
sg612
(dp2810
Vbody
p2811
VWhy does the intention of the screenwriters not matter to whether or not a character is a Mary Sue?  What\u2019s your definition of Mary Sue in this case?
p2812
sVedited
p2813
I00
sVpermalink
p2814
V/r/changemyview/comments/7tu0ft/cmv_spoilers_with_the_exception_of_a_single_scene/dtfi6cg/
p2815
sVsubreddit_type
p2816
Vpublic
p2817
sVauthor_flair_css_class
p2818
NsVstickied
p2819
I00
sVauthor
p2820
VRoflcaust
p2821
sVsubreddit
p2822
Vchangemyview
p2823
sVauthor_flair_text
p2824
NsVcreated_utc
p2825
I1517259648
sVsubreddit_id
p2826
Vt5_2w2s8
p2827
sVdistinguished
p2828
NsVparent_id
p2829
Vt1_dtfgd0k
p2830
sVscore
p2831
I0
sVis_submitter
p2832
I00
sVgilded
p2833
I0
sVid
p2834
Vdtfi6cg
p2835
sVcan_gild
p2836
I01
sVlink_id
p2837
Vt3_7tu0ft
p2838
sVretrieved_on
p2839
I1518403331
sVcontroversiality
p2840
I0
ssg644
(dp2841
g224
g0
(g604
g2
Ntp2842
Rp2843
(dp2844
g608
S'dtfi6cg'
p2845
sg610
g611
sg612
(dp2846
Vbody
p2847
V&gt;What\u2019s your definition of Mary Sue in this case?\u000a\u000aI like the Wikipedia definition: "A Mary Sue is an idealized and seemingly perfect fictional character...They can usually perform better at tasks than should be possible given the amount of training or experience. Sometimes, the name is reserved only for women, but more often the name is used for both genders." Here, I think we need to interpret the "should be possible" in terms of what is established to be possible in the original canon (as the term originated in a fanfiction context).\u000a\u000aThis definition is not exhaustive, but it's a good guideline. And Rey definitely fits the bill.\u000a\u000a&gt;Why does the intention of the screenwriters not matter to whether or not a character is a Mary Sue?\u000a\u000aDeath of the author?
p2848
sVedited
p2849
I00
sVpermalink
p2850
V/r/changemyview/comments/7tu0ft/cmv_spoilers_with_the_exception_of_a_single_scene/dtfisjh/
p2851
sVsubreddit_type
p2852
Vpublic
p2853
sVauthor_flair_css_class
p2854
NsVstickied
p2855
I00
sVauthor
p2856
Vyyzjertl
p2857
sVsubreddit
p2858
Vchangemyview
p2859
sVauthor_flair_text
p2860
V56\u2206
p2861
sVcreated_utc
p2862
I1517260230
sVsubreddit_id
p2863
Vt5_2w2s8
p2864
sVdistinguished
p2865
NsVparent_id
p2866
Vt1_dtfi6cg
p2867
sVscore
p2868
I3
sVis_submitter
p2869
I00
sVgilded
p2870
I0
sVid
p2871
Vdtfisjh
p2872
sVcan_gild
p2873
I01
sVlink_id
p2874
Vt3_7tu0ft
p2875
sVretrieved_on
p2876
I1518403628
sVcontroversiality
p2877
I0
ssg644
(dp2878
g390
g0
(g604
g2
Ntp2879
Rp2880
(dp2881
g608
S'dtfisjh'
p2882
sg610
g611
sg612
(dp2883
Vbody
p2884
VIf your operant definition here of \u201cMary Sue\u201d is \u201can idealized, seemingly perfect fictional character etc etc\u201d then I can agree that Rey fits the bill.  I was arguing under the definition of Mary Sue as a self-insertion by the creator, which is why I brought up creator intention.
p2885
sVedited
p2886
I00
sVpermalink
p2887
V/r/changemyview/comments/7tu0ft/cmv_spoilers_with_the_exception_of_a_single_scene/dtfkerf/
p2888
sVsubreddit_type
p2889
Vpublic
p2890
sVauthor_flair_css_class
p2891
NsVstickied
p2892
I00
sVauthor
p2893
VRoflcaust
p2894
sVsubreddit
p2895
Vchangemyview
p2896
sVauthor_flair_text
p2897
NsVcreated_utc
p2898
I1517261736
sVsubreddit_id
p2899
Vt5_2w2s8
p2900
sVdistinguished
p2901
NsVparent_id
p2902
Vt1_dtfisjh
p2903
sVscore
p2904
I2
sVis_submitter
p2905
I00
sVgilded
p2906
I0
sVid
p2907
Vdtfkerf
p2908
sVcan_gild
p2909
I01
sVlink_id
p2910
Vt3_7tu0ft
p2911
sVretrieved_on
p2912
I1518404426
sVcontroversiality
p2913
I0
ssg644
(dp2914
g52
g0
(g604
g2
Ntp2915
Rp2916
(dp2917
g608
S'dtfkerf'
p2918
sg610
g611
sg612
(dp2919
Vbody
p2920
V[deleted]
p2921
sVedited
p2922
I00
sVpermalink
p2923
V/r/changemyview/comments/7tu0ft/cmv_spoilers_with_the_exception_of_a_single_scene/dtfpzqy/
p2924
sVsubreddit_type
p2925
Vpublic
p2926
sVauthor_flair_css_class
p2927
NsVstickied
p2928
I00
sVauthor
p2929
V[deleted]
p2930
sVsubreddit
p2931
Vchangemyview
p2932
sVauthor_flair_text
p2933
NsVcreated_utc
p2934
I1517267275
sVsubreddit_id
p2935
Vt5_2w2s8
p2936
sVdistinguished
p2937
NsVparent_id
p2938
Vt1_dtfkerf
p2939
sVscore
p2940
I1
sVis_submitter
p2941
I00
sVgilded
p2942
I0
sVid
p2943
Vdtfpzqy
p2944
sVcan_gild
p2945
I01
sVlink_id
p2946
Vt3_7tu0ft
p2947
sVretrieved_on
p2948
I1518407276
sVcontroversiality
p2949
I0
ssg644
Nsbssbssbsg28
g0
(g604
g2
Ntp2950
Rp2951
(dp2952
g608
S'dtfi6cg'
p2953
sg610
g611
sg612
(dp2954
Vbody
p2955
VSeriously?  Intentions are always irrelevant when evaluating a product.  That goes for anything in film, not just this one issue.
p2956
sVedited
p2957
I00
sVpermalink
p2958
V/r/changemyview/comments/7tu0ft/cmv_spoilers_with_the_exception_of_a_single_scene/dtfj9w4/
p2959
sVsubreddit_type
p2960
Vpublic
p2961
sVauthor_flair_css_class
p2962
NsVstickied
p2963
I00
sVauthor
p2964
VYossarianWWII
p2965
sVsubreddit
p2966
Vchangemyview
p2967
sVauthor_flair_text
p2968
V20\u2206
p2969
sVcreated_utc
p2970
I1517260684
sVsubreddit_id
p2971
Vt5_2w2s8
p2972
sVdistinguished
p2973
NsVparent_id
p2974
Vt1_dtfi6cg
p2975
sVscore
p2976
I3
sVis_submitter
p2977
I00
sVgilded
p2978
I0
sVid
p2979
Vdtfj9w4
p2980
sVcan_gild
p2981
I01
sVlink_id
p2982
Vt3_7tu0ft
p2983
sVretrieved_on
p2984
I1518403867
sVcontroversiality
p2985
I0
ssg644
(dp2986
g389
g0
(g604
g2
Ntp2987
Rp2988
(dp2989
g608
S'dtfj9w4'
p2990
sg610
g611
sg612
(dp2991
Vbody
p2992
VThat depends on your definition of \u201cMary Sue.\u201d
p2993
sVedited
p2994
I00
sVpermalink
p2995
V/r/changemyview/comments/7tu0ft/cmv_spoilers_with_the_exception_of_a_single_scene/dtfk83q/
p2996
sVsubreddit_type
p2997
Vpublic
p2998
sVauthor_flair_css_class
p2999
NsVstickied
p3000
I00
sVauthor
p3001
VRoflcaust
p3002
sVsubreddit
p3003
Vchangemyview
p3004
sVauthor_flair_text
p3005
NsVcreated_utc
p3006
I1517261559
sVsubreddit_id
p3007
Vt5_2w2s8
p3008
sVdistinguished
p3009
NsVparent_id
p3010
Vt1_dtfj9w4
p3011
sVscore
p3012
I0
sVis_submitter
p3013
I00
sVgilded
p3014
I0
sVid
p3015
Vdtfk83q
p3016
sVcan_gild
p3017
I01
sVlink_id
p3018
Vt3_7tu0ft
p3019
sVretrieved_on
p3020
I1518404337
sVcontroversiality
p3021
I0
ssg644
(dp3022
g29
g0
(g604
g2
Ntp3023
Rp3024
(dp3025
g608
S'dtfk83q'
p3026
sg610
g611
sg612
(dp3027
Vbody
p3028
VSeeing as it is a term for a specific type of poorly-written character, I don't see much use in a definition that examines them from outside of the context of the narrative.
p3029
sVedited
p3030
I00
sVpermalink
p3031
V/r/changemyview/comments/7tu0ft/cmv_spoilers_with_the_exception_of_a_single_scene/dtfkdtx/
p3032
sVsubreddit_type
p3033
Vpublic
p3034
sVauthor_flair_css_class
p3035
NsVstickied
p3036
I00
sVauthor
p3037
VYossarianWWII
p3038
sVsubreddit
p3039
Vchangemyview
p3040
sVauthor_flair_text
p3041
V20\u2206
p3042
sVcreated_utc
p3043
I1517261710
sVsubreddit_id
p3044
Vt5_2w2s8
p3045
sVdistinguished
p3046
NsVparent_id
p3047
Vt1_dtfk83q
p3048
sVscore
p3049
I3
sVis_submitter
p3050
I00
sVgilded
p3051
I0
sVid
p3052
Vdtfkdtx
p3053
sVcan_gild
p3054
I01
sVlink_id
p3055
Vt3_7tu0ft
p3056
sVretrieved_on
p3057
I1518404414
sVcontroversiality
p3058
I0
ssg644
Nsbssbssbssbsg260
g2514
sg90
g0
(g604
g2
Ntp3059
Rp3060
(dp3061
g608
S'dtf8cz2'
p3062
sg610
g611
sg612
(dp3063
Vbody
p3064
VSorry, u/Tsegen \u2013 your comment has been removed for breaking Rule 1:\u000a\u000a&gt; **Direct responses to a CMV post must challenge at least one aspect of OP\u2019s stated view (however minor), or ask a clarifying question**. Arguments in favor of the view OP is willing to change must be restricted to replies to other comments. [See the wiki page for more information](http://www.reddit.com/r/changemyview/wiki/rules#wiki_rule_1).  \u000a\u000aIf you would like to appeal, [message the moderators by clicking this link](http://www.reddit.com/message/compose?to=%2Fr%2Fchangemyview&amp;subject=Rule+1+Appeal+Tsegen&amp;message=Tsegen+would+like+to+appeal+the+removal+of+[his/her+post](https://www.reddit.com/r/changemyview/comments/7tu0ft/cmv_spoilers_with_the_exception_of_a_single_scene/dtf8cz2/\u005c)+because...). Please note that multiple violations will lead to a ban, as explained in our [moderation standards](https://www.reddit.com/r/changemyview/wiki/modstandards).
p3065
sVedited
p3066
I00
sVpermalink
p3067
V/r/changemyview/comments/7tu0ft/cmv_spoilers_with_the_exception_of_a_single_scene/dtfoytz/
p3068
sVsubreddit_type
p3069
Vpublic
p3070
sVauthor_flair_css_class
p3071
NsVstickied
p3072
I00
sVauthor
p3073
VAnsuz07
p3074
sVsubreddit
p3075
Vchangemyview
p3076
sVauthor_flair_text
p3077
V253\u2206
p3078
sVcreated_utc
p3079
I1517266228
sVsubreddit_id
p3080
Vt5_2w2s8
p3081
sVdistinguished
p3082
Vmoderator
p3083
sVparent_id
p3084
Vt1_dtf8cz2
p3085
sVscore
p3086
I1
sVis_submitter
p3087
I00
sVgilded
p3088
I0
sVid
p3089
Vdtfoytz
p3090
sVcan_gild
p3091
I01
sVlink_id
p3092
Vt3_7tu0ft
p3093
sVretrieved_on
p3094
I1518406775
sVcontroversiality
p3095
I0
ssg644
Nsbsg592
g0
(g604
g2
Ntp3096
Rp3097
(dp3098
g608
S'dtfgj6j'
p3099
sg610
g611
sg612
(dp3100
Vbody
p3101
V&gt; Calling that anti-gun propaganda is a bit of a stretch\u000a\u000aWhich is why I didn't call it that.\u000a\u000aFor me it was jarring since it was an unnecessary insertion of a real-world expression into a fictional universe.  Had she said "it was an accident," I probably wouldn't have noticed it.  But like you said, "cleaning it and it went off" is a popular cliche, which means that including it was likely intentional on the part of the writer.
p3102
sVedited
p3103
I00
sVpermalink
p3104
V/r/changemyview/comments/7tu0ft/cmv_spoilers_with_the_exception_of_a_single_scene/dtfhy6g/
p3105
sVsubreddit_type
p3106
Vpublic
p3107
sVauthor_flair_css_class
p3108
NsVstickied
p3109
I00
sVauthor
p3110
Visoldasballs
p3111
sVsubreddit
p3112
Vchangemyview
p3113
sVauthor_flair_text
p3114
V1\u2206
p3115
sVcreated_utc
p3116
I1517259437
sVsubreddit_id
p3117
Vt5_2w2s8
p3118
sVdistinguished
p3119
NsVparent_id
p3120
Vt1_dtfgj6j
p3121
sVscore
p3122
I2
sVis_submitter
p3123
I00
sVgilded
p3124
I0
sVid
p3125
Vdtfhy6g
p3126
sVcan_gild
p3127
I01
sVlink_id
p3128
Vt3_7tu0ft
p3129
sVretrieved_on
p3130
I1518403220
sVcontroversiality
p3131
I0
ssg644
Nsbsg253
g2698
sg211
g2477
sg186
g0
(g604
g2
Ntp3132
Rp3133
(dp3134
g608
S'dtfntpg'
p3135
sg610
g611
sg612
(dp3136
Vbody
p3137
VWhat are you talking about? White people take shit all the time. It's hardly a forced stereotype that the military commander won't take shit, becuse thats how the military is perceived. It's a perfect example of how the role influences the character. When it comes to the purple hair lady her character is forced into a scenario to prove a point about strong women in the real world. Characters are vessels for the plot, when you force something into it it's noticeable and looks bad. \u000a\u000aAnd you know it's forced when every part of the plot she is involved with is a plot hole. If anything her actions make women in power look bad. If she would've just been up front with the plan the FO wouldn't have shot half of the people fleeing. 
p3138
sVedited
p3139
I00
sVpermalink
p3140
V/r/changemyview/comments/7tu0ft/cmv_spoilers_with_the_exception_of_a_single_scene/dtfqrbm/
p3141
sVsubreddit_type
p3142
Vpublic
p3143
sVauthor_flair_css_class
p3144
NsVstickied
p3145
I00
sVauthor
p3146
Vfenderkruse
p3147
sVsubreddit
p3148
Vchangemyview
p3149
sVauthor_flair_text
p3150
V3\u2206
p3151
sVcreated_utc
p3152
I1517268065
sVsubreddit_id
p3153
Vt5_2w2s8
p3154
sVdistinguished
p3155
NsVparent_id
p3156
Vt1_dtfntpg
p3157
sVscore
p3158
I1
sVis_submitter
p3159
I00
sVgilded
p3160
I0
sVid
p3161
Vdtfqrbm
p3162
sVcan_gild
p3163
I01
sVlink_id
p3164
Vt3_7tu0ft
p3165
sVretrieved_on
p3166
I1518407653
sVcontroversiality
p3167
I0
ssg644
(dp3168
g571
g0
(g604
g2
Ntp3169
Rp3170
(dp3171
g608
S'dtfqrbm'
p3172
sg610
g611
sg612
(dp3173
Vbody
p3174
V&gt; When it comes to the purple hair lady her character is forced into a scenario...\u000a\u000aYeah, perhaps I was unclear, but I don't understand how you've interpreted what I said, so I can't comment too much further than to point out that Holdo was a military commander, so if military commanders don't take shit, then surely her not taking Poe's shit is not "forced", but a typical expression of military commanders in media. \u000a\u000a&gt;... every part of the plot she is involved with is a plot hole. If anything her actions make women in power look bad. If she would've just been up front with the plan...\u000a\u000aI don't really buy the argument that the perceived mistake here is, as you appear to be claiming, an objective mistake in the film. For clarity, I don't know how you'd go about demonstrating that your explanation of events hits at more than an interpretation of and opinion about the plot and characters, especially given you're seeing this though a political lens.\u000a\u000aSo that I can better understand your opinion on Holdo, could you tell me how they could have executed the same beats and made her gender (or, apparently, her hair) *less* relevant? Unless I'm remembering wrong, her appearance and identity weren't touched on at all, except that she was on-screen sometimes. If her appearance itself was the transgression, maybe you could explain how.\u000a\u000aCould you perhaps be viewing the film through a bias regarding how you perceive women with unusually coloured hair? I don't mean to be offensive or anything, or even to imply negativity through the word "bias". It's just that you seem to feel that something about Holdo was politically motivated, and I missed that interpretation entirely. I don't really see how "this character happens to be a woman with purple hair" is any different from "this character happens to be a bald man" in this context, at least as far as political impact is concerned.
p3175
sVedited
p3176
I00
sVpermalink
p3177
V/r/changemyview/comments/7tu0ft/cmv_spoilers_with_the_exception_of_a_single_scene/dtfrz3s/
p3178
sVsubreddit_type
p3179
Vpublic
p3180
sVauthor_flair_css_class
p3181
NsVstickied
p3182
I00
sVauthor
p3183
VIxius
p3184
sVsubreddit
p3185
Vchangemyview
p3186
sVauthor_flair_text
p3187
NsVcreated_utc
p3188
I1517269303
sVsubreddit_id
p3189
Vt5_2w2s8
p3190
sVdistinguished
p3191
NsVparent_id
p3192
Vt1_dtfqrbm
p3193
sVscore
p3194
I1
sVis_submitter
p3195
I00
sVgilded
p3196
I0
sVid
p3197
Vdtfrz3s
p3198
sVcan_gild
p3199
I01
sVlink_id
p3200
Vt3_7tu0ft
p3201
sVretrieved_on
p3202
I1518408251
sVcontroversiality
p3203
I0
ssg644
Nsbssbsg261
g0
(g604
g2
Ntp3204
Rp3205
(dp3206
g608
S'dtfdtoz'
p3207
sg610
g611
sg612
(dp3208
Vbody
p3209
V&gt; Kylo Ren is not a Mary Sue.\u000a\u000aI did not say Kylo Ren was a Mary Sue. I said that Kylo Ren was uncommonly powerful, and the film establishes that the Force responds to such imbalance by balancing it - a.k.a. creating Rey. \u000a\u000a&gt;Yes, TLJ gives a reason for her strong force powers, but it does not make her less of a Mary Sue. \u000a\u000aIt absolutely does, as the premise of her character is that her powers were thrust upon her by the Force. \u000a\u000a\u000a
p3210
sVedited
p3211
I00
sVpermalink
p3212
V/r/changemyview/comments/7tu0ft/cmv_spoilers_with_the_exception_of_a_single_scene/dtfe0qd/
p3213
sVsubreddit_type
p3214
Vpublic
p3215
sVauthor_flair_css_class
p3216
NsVstickied
p3217
I00
sVauthor
p3218
Vworldeditor
p3219
sVsubreddit
p3220
Vchangemyview
p3221
sVauthor_flair_text
p3222
V3\u2206
p3223
sVcreated_utc
p3224
I1517255764
sVsubreddit_id
p3225
Vt5_2w2s8
p3226
sVdistinguished
p3227
NsVparent_id
p3228
Vt1_dtfdtoz
p3229
sVscore
p3230
I0
sVis_submitter
p3231
I00
sVgilded
p3232
I0
sVid
p3233
Vdtfe0qd
p3234
sVcan_gild
p3235
I01
sVlink_id
p3236
Vt3_7tu0ft
p3237
sVretrieved_on
p3238
I1518401288
sVcontroversiality
p3239
I0
ssg644
(dp3240
g48
g1779
ssbsg366
g1999
sg224
g2843
sg570
g0
(g604
g2
Ntp3241
Rp3242
(dp3243
g608
S'dtffkpn'
p3244
sg610
g611
sg612
(dp3245
Vbody
p3246
VDo you agree that older films that make white men look cool are doing that to further a similarly unspoken political agenda? Or is there something about depicting white men in heroic/successful positions that avoids being political in the way that depicting women in similar situations is political?\u000a\u000aWhat I mean is that it doesn't take too much effort to recall plots where a character (who happens to be a white man) proves someone wrong because they know something another character doesn't. Or where a (white male) military commander doesn't take shit from his subordinates, and isn't typically regarded as doing this because of a forced agenda.
p3247
sVedited
p3248
I00
sVpermalink
p3249
V/r/changemyview/comments/7tu0ft/cmv_spoilers_with_the_exception_of_a_single_scene/dtfntpg/
p3250
sVsubreddit_type
p3251
Vpublic
p3252
sVauthor_flair_css_class
p3253
NsVstickied
p3254
I00
sVauthor
p3255
VIxius
p3256
sVsubreddit
p3257
Vchangemyview
p3258
sVauthor_flair_text
p3259
NsVcreated_utc
p3260
I1517265063
sVsubreddit_id
p3261
Vt5_2w2s8
p3262
sVdistinguished
p3263
NsVparent_id
p3264
Vt1_dtffkpn
p3265
sVscore
p3266
I3
sVis_submitter
p3267
I00
sVgilded
p3268
I0
sVid
p3269
Vdtfntpg
p3270
sVcan_gild
p3271
I01
sVlink_id
p3272
Vt3_7tu0ft
p3273
sVretrieved_on
p3274
I1518406215
sVcontroversiality
p3275
I0
ssg644
(dp3276
g186
g3133
ssbsg352
g2661
sg154
g0
(g604
g2
Ntp3277
Rp3278
(dp3279
g608
S'dtfqcvr'
p3280
sg610
g611
sg612
(dp3281
Vbody
p3282
VGotta re-adjust your definition of "normal". \u000a\u000aHell, I wouldn't be too surprised to read that the admiral wasn't *human* exactly, but was *humanoid*. Depending on what source you read for instance, Han Solo isn't listed as a *human* but rather a Corellian. 
p3283
sVedited
p3284
I00
sVpermalink
p3285
V/r/changemyview/comments/7tu0ft/cmv_spoilers_with_the_exception_of_a_single_scene/dtfqpi7/
p3286
sVsubreddit_type
p3287
Vpublic
p3288
sVauthor_flair_css_class
p3289
NsVstickied
p3290
I00
sVauthor
p3291
VDraculea
p3292
sVsubreddit
p3293
Vchangemyview
p3294
sVauthor_flair_text
p3295
NsVcreated_utc
p3296
I1517268014
sVsubreddit_id
p3297
Vt5_2w2s8
p3298
sVdistinguished
p3299
NsVparent_id
p3300
Vt1_dtfqcvr
p3301
sVscore
p3302
I4
sVis_submitter
p3303
I00
sVgilded
p3304
I0
sVid
p3305
Vdtfqpi7
p3306
sVcan_gild
p3307
I01
sVlink_id
p3308
Vt3_7tu0ft
p3309
sVretrieved_on
p3310
I1518407628
sVcontroversiality
p3311
I0
ssg644
Nsbsg478
g0
(g604
g2
Ntp3312
Rp3313
(dp3314
g608
S'7tu0ft'
p3315
sg610
g611
sg612
(dp3316
Vbody
p3317
VHow is animal rights political?  By that notion basically advocating for literally any ethical position is political.  Most people agree that that sort of treatment is immoral.
p3318
sVedited
p3319
I00
sVpermalink
p3320
V/r/changemyview/comments/7tu0ft/cmv_spoilers_with_the_exception_of_a_single_scene/dtfhp44/
p3321
sVsubreddit_type
p3322
Vpublic
p3323
sVauthor_flair_css_class
p3324
NsVstickied
p3325
I00
sVauthor
p3326
Vzzzztopportal
p3327
sVsubreddit
p3328
Vchangemyview
p3329
sVauthor_flair_text
p3330
V1\u2206
p3331
sVcreated_utc
p3332
I1517259199
sVsubreddit_id
p3333
Vt5_2w2s8
p3334
sVdistinguished
p3335
NsVparent_id
p3336
Vt3_7tu0ft
p3337
sVscore
p3338
I0
sVis_submitter
p3339
I00
sVgilded
p3340
I0
sVid
p3341
Vdtfhp44
p3342
sVcan_gild
p3343
I01
sVlink_id
p3344
Vt3_7tu0ft
p3345
sVretrieved_on
p3346
I1518403099
sVcontroversiality
p3347
I0
ssg644
(dp3348
g367
g0
(g604
g2
Ntp3349
Rp3350
(dp3351
g608
S'dtfhp44'
p3352
sg610
g611
sg612
(dp3353
Vbody
p3354
V&gt; How is animal rights political?\u000a\u000aYou don't think the opinion that cows/chickens shouldn't be used for food, or horses shouldn't be used for entertainment is a political issue?
p3355
sVedited
p3356
I00
sVpermalink
p3357
V/r/changemyview/comments/7tu0ft/cmv_spoilers_with_the_exception_of_a_single_scene/dtfkox9/
p3358
sVsubreddit_type
p3359
Vpublic
p3360
sVauthor_flair_css_class
p3361
NsVstickied
p3362
I00
sVauthor
p3363
VZeusThunder369
p3364
sVsubreddit
p3365
Vchangemyview
p3366
sVauthor_flair_text
p3367
V7\u2206
p3368
sVcreated_utc
p3369
I1517261999
sVsubreddit_id
p3370
Vt5_2w2s8
p3371
sVdistinguished
p3372
NsVparent_id
p3373
Vt1_dtfhp44
p3374
sVscore
p3375
I2
sVis_submitter
p3376
I01
sVgilded
p3377
I0
sVid
p3378
Vdtfkox9
p3379
sVcan_gild
p3380
I01
sVlink_id
p3381
Vt3_7tu0ft
p3382
sVretrieved_on
p3383
I1518404566
sVcontroversiality
p3384
I0
ssg644
Nsbssbsg330
g1888
sg590
g0
(g604
g2
Ntp3385
Rp3386
(dp3387
g608
S'dtf7shv'
p3388
sg610
g611
sg612
(dp3389
Vbody
p3390
VI wouldn't call them SJW.  Not crazy about the term.  But they stuck out to me as social commentary on gun control and religious belief.  It's common to hear people shitting on Christians for not actually reading the Bible, but that might be unfamiliar to you.\u000a\u000aThe fact that you don't see them that way goes to my point: what you perceive as political commentary depends on what you brought into the theater with you.
p3391
sVedited
p3392
I00
sVpermalink
p3393
V/r/changemyview/comments/7tu0ft/cmv_spoilers_with_the_exception_of_a_single_scene/dtf8dvx/
p3394
sVsubreddit_type
p3395
Vpublic
p3396
sVauthor_flair_css_class
p3397
NsVstickied
p3398
I00
sVauthor
p3399
Visoldasballs
p3400
sVsubreddit
p3401
Vchangemyview
p3402
sVauthor_flair_text
p3403
V1\u2206
p3404
sVcreated_utc
p3405
I1517250538
sVsubreddit_id
p3406
Vt5_2w2s8
p3407
sVdistinguished
p3408
NsVparent_id
p3409
Vt1_dtf7shv
p3410
sVscore
p3411
I5
sVis_submitter
p3412
I00
sVgilded
p3413
I0
sVid
p3414
Vdtf8dvx
p3415
sVcan_gild
p3416
I01
sVlink_id
p3417
Vt3_7tu0ft
p3418
sVretrieved_on
p3419
I1518398465
sVcontroversiality
p3420
I0
ssg644
(dp3421
g47
g0
(g604
g2
Ntp3422
Rp3423
(dp3424
g608
S'dtf8dvx'
p3425
sg610
g611
sg612
(dp3426
Vbody
p3427
V[deleted]
p3428
sVedited
p3429
I00
sVpermalink
p3430
V/r/changemyview/comments/7tu0ft/cmv_spoilers_with_the_exception_of_a_single_scene/dtfef2o/
p3431
sVsubreddit_type
p3432
Vpublic
p3433
sVauthor_flair_css_class
p3434
NsVstickied
p3435
I00
sVauthor
p3436
V[deleted]
p3437
sVsubreddit
p3438
Vchangemyview
p3439
sVauthor_flair_text
p3440
NsVcreated_utc
p3441
I1517256135
sVsubreddit_id
p3442
Vt5_2w2s8
p3443
sVdistinguished
p3444
NsVparent_id
p3445
Vt1_dtf8dvx
p3446
sVscore
p3447
I3
sVis_submitter
p3448
I00
sVgilded
p3449
I0
sVid
p3450
Vdtfef2o
p3451
sVcan_gild
p3452
I01
sVlink_id
p3453
Vt3_7tu0ft
p3454
sVretrieved_on
p3455
I1518401487
sVcontroversiality
p3456
I0
ssg644
(dp3457
g51
g0
(g604
g2
Ntp3458
Rp3459
(dp3460
g608
S'dtfef2o'
p3461
sg610
g611
sg612
(dp3462
Vbody
p3463
VWhile I did get that vibe a bit too, I do wonder why we all inferred that the opulent, slave based, animal abusing pleasure planet where the ultra rich throw around and gamble away tons of money that they made off of selling weapons to both sides of a war is the capitalist stand in?\u000a\u000aThere really isn't anything capitalist about it is there? It wasn't a lower class family working hard and attaining middle class-dom (Though there are arguments to be made that's not a real feature of capitalism). People don't dislike the pleasure planet because it functions on the free and open exchange of goods or services.\u000a\u000aPerhaps capitalism (which I personally think is pretty nifty in moderation) and it's adherents have just done a super shitty job of selling the concept?
p3464
sVedited
p3465
I00
sVpermalink
p3466
V/r/changemyview/comments/7tu0ft/cmv_spoilers_with_the_exception_of_a_single_scene/dtfo9bv/
p3467
sVsubreddit_type
p3468
Vpublic
p3469
sVauthor_flair_css_class
p3470
NsVstickied
p3471
I00
sVauthor
p3472
V[deleted]
p3473
sVsubreddit
p3474
Vchangemyview
p3475
sVauthor_flair_text
p3476
NsVcreated_utc
p3477
I1517265511
sVsubreddit_id
p3478
Vt5_2w2s8
p3479
sVdistinguished
p3480
NsVparent_id
p3481
Vt1_dtfef2o
p3482
sVscore
p3483
I1
sVis_submitter
p3484
I00
sVgilded
p3485
I0
sVid
p3486
Vdtfo9bv
p3487
sVcan_gild
p3488
I00
sVlink_id
p3489
Vt3_7tu0ft
p3490
sVretrieved_on
p3491
I1518406428
sVcontroversiality
p3492
I0
ssg644
Nsbsg591
g0
(g604
g2
Ntp3493
Rp3494
(dp3495
g608
S'dtfef2o'
p3496
sg610
g611
sg612
(dp3497
Vbody
p3498
VI wouldn't necessarily say anti-capitalist, but it definitely hit on an over-simplified narrative of wealth inequality, or whatever.  \u000a\u000a"No problem stealing from these guys, they're not people cause they're rich."\u000a\u000aBut again, people who walk in the theater already primed to be receptive to that sort of thing won't even notice it, whereas to you and me it's glaring and out-of-place.
p3499
sVedited
p3500
I00
sVpermalink
p3501
V/r/changemyview/comments/7tu0ft/cmv_spoilers_with_the_exception_of_a_single_scene/dtfhmcz/
p3502
sVsubreddit_type
p3503
Vpublic
p3504
sVauthor_flair_css_class
p3505
NsVstickied
p3506
I00
sVauthor
p3507
Visoldasballs
p3508
sVsubreddit
p3509
Vchangemyview
p3510
sVauthor_flair_text
p3511
V1\u2206
p3512
sVcreated_utc
p3513
I1517259128
sVsubreddit_id
p3514
Vt5_2w2s8
p3515
sVdistinguished
p3516
NsVparent_id
p3517
Vt1_dtfef2o
p3518
sVscore
p3519
I6
sVis_submitter
p3520
I00
sVgilded
p3521
I0
sVid
p3522
Vdtfhmcz
p3523
sVcan_gild
p3524
I01
sVlink_id
p3525
Vt3_7tu0ft
p3526
sVretrieved_on
p3527
I1518403061
sVcontroversiality
p3528
I0
ssg644
(dp3529
g49
g0
(g604
g2
Ntp3530
Rp3531
(dp3532
g608
S'dtfhmcz'
p3533
sg610
g611
sg612
(dp3534
Vbody
p3535
V[deleted]
p3536
sVedited
p3537
I00
sVpermalink
p3538
V/r/changemyview/comments/7tu0ft/cmv_spoilers_with_the_exception_of_a_single_scene/dtfhx31/
p3539
sVsubreddit_type
p3540
Vpublic
p3541
sVauthor_flair_css_class
p3542
NsVstickied
p3543
I00
sVauthor
p3544
V[deleted]
p3545
sVsubreddit
p3546
Vchangemyview
p3547
sVauthor_flair_text
p3548
NsVcreated_utc
p3549
I1517259409
sVsubreddit_id
p3550
Vt5_2w2s8
p3551
sVdistinguished
p3552
NsVparent_id
p3553
Vt1_dtfhmcz
p3554
sVscore
p3555
I3
sVis_submitter
p3556
I00
sVgilded
p3557
I0
sVid
p3558
Vdtfhx31
p3559
sVcan_gild
p3560
I01
sVlink_id
p3561
Vt3_7tu0ft
p3562
sVretrieved_on
p3563
I1518403205
sVcontroversiality
p3564
I0
ssg644
Nsbssbssbsg399
g0
(g604
g2
Ntp3565
Rp3566
(dp3567
g608
S'dtf8dvx'
p3568
sg610
g611
sg612
(dp3569
Vbody
p3570
V"cleaning it and it went off" is just a popular cliche excuse people use for "accidental" discharges of their guns.  I don't think you need to read too much political leaning from it.  \u000a\u000aIn that scene Rey shot at something that wasn't there, didn't want to tell people she was seeing things, so came up with a half-assed obviously fake excuse.  Calling that anti-gun propaganda is a bit of a stretch, especially considering all the other use of guns in the movie.
p3571
sVedited
p3572
I00
sVpermalink
p3573
V/r/changemyview/comments/7tu0ft/cmv_spoilers_with_the_exception_of_a_single_scene/dtfgj6j/
p3574
sVsubreddit_type
p3575
Vpublic
p3576
sVauthor_flair_css_class
p3577
NsVstickied
p3578
I00
sVauthor
p3579
Vserial_crusher
p3580
sVsubreddit
p3581
Vchangemyview
p3582
sVauthor_flair_text
p3583
V4\u2206
p3584
sVcreated_utc
p3585
I1517258116
sVsubreddit_id
p3586
Vt5_2w2s8
p3587
sVdistinguished
p3588
NsVparent_id
p3589
Vt1_dtf8dvx
p3590
sVscore
p3591
I9
sVis_submitter
p3592
I00
sVgilded
p3593
I0
sVid
p3594
Vdtfgj6j
p3595
sVcan_gild
p3596
I01
sVlink_id
p3597
Vt3_7tu0ft
p3598
sVretrieved_on
p3599
I1518402529
sVcontroversiality
p3600
I0
ssg644
(dp3601
g592
g3097
ssbssbsg297
g0
(g604
g2
Ntp3602
Rp3603
(dp3604
g608
S'7tu0ft'
p3605
sg610
g611
sg612
(dp3606
Vbody
p3607
VNot sure if this counts as changing your view or not, but I am convinced the writers TROLLED anti-SJW types with the interaction of Holdo and Poe\u000a\u000aIn the movie they cast/costume a defitively feminist/alternative type - a lady with frizzy purple hair and portray her as busting Poe's balls, to the point where he stages a mutiny.\u000a\u000aSo by and large that would probably be quite acceptable to the anti-SJW because Holdo was portrayed as being bad - however at the last minute she is revealed to have the plan, blessing of Lea and like Poe. So suddenly she's the good guy. I suspect that rankled the antis, and it's not too OTT to suspect it was somewhat intentional \u000a\u000aedit: clarity 
p3608
sVedited
p3609
I1517258884
sVpermalink
p3610
V/r/changemyview/comments/7tu0ft/cmv_spoilers_with_the_exception_of_a_single_scene/dtf80m8/
p3611
sVsubreddit_type
p3612
Vpublic
p3613
sVauthor_flair_css_class
p3614
NsVstickied
p3615
I00
sVauthor
p3616
VThomasEdmund84
p3617
sVsubreddit
p3618
Vchangemyview
p3619
sVauthor_flair_text
p3620
V17\u2206
p3621
sVcreated_utc
p3622
I1517250205
sVsubreddit_id
p3623
Vt5_2w2s8
p3624
sVdistinguished
p3625
NsVparent_id
p3626
Vt3_7tu0ft
p3627
sVscore
p3628
I7
sVis_submitter
p3629
I00
sVgilded
p3630
I0
sVid
p3631
Vdtf80m8
p3632
sVcan_gild
p3633
I01
sVlink_id
p3634
Vt3_7tu0ft
p3635
sVretrieved_on
p3636
I1518398280
sVcontroversiality
p3637
I0
ssg644
(dp3638
g358
g0
(g604
g2
Ntp3639
Rp3640
(dp3641
g608
S'dtf80m8'
p3642
sg610
g611
sg612
(dp3643
Vbody
p3644
VI'd say the purple hair thing would be unusual in other movies, but in a setting like Star Wars it isn't unusual at all.
p3645
sVedited
p3646
I00
sVpermalink
p3647
V/r/changemyview/comments/7tu0ft/cmv_spoilers_with_the_exception_of_a_single_scene/dtfa0lp/
p3648
sVsubreddit_type
p3649
Vpublic
p3650
sVauthor_flair_css_class
p3651
NsVstickied
p3652
I00
sVauthor
p3653
VZeusThunder369
p3654
sVsubreddit
p3655
Vchangemyview
p3656
sVauthor_flair_text
p3657
V7\u2206
p3658
sVcreated_utc
p3659
I1517252024
sVsubreddit_id
p3660
Vt5_2w2s8
p3661
sVdistinguished
p3662
NsVparent_id
p3663
Vt1_dtf80m8
p3664
sVscore
p3665
I3
sVis_submitter
p3666
I01
sVgilded
p3667
I0
sVid
p3668
Vdtfa0lp
p3669
sVcan_gild
p3670
I01
sVlink_id
p3671
Vt3_7tu0ft
p3672
sVretrieved_on
p3673
I1518399278
sVcontroversiality
p3674
I0
ssg644
(dp3675
g298
g0
(g604
g2
Ntp3676
Rp3677
(dp3678
g608
S'dtfa0lp'
p3679
sg610
g611
sg612
(dp3680
Vbody
p3681
VI dunno I'm not a hater, but I immediately thought that Holdo's character was designed to represent an alternative-feminist stereotype - its not that its 'weird' its that it may been intentional to bait haters  
p3682
sVedited
p3683
I00
sVpermalink
p3684
V/r/changemyview/comments/7tu0ft/cmv_spoilers_with_the_exception_of_a_single_scene/dtfhhvz/
p3685
sVsubreddit_type
p3686
Vpublic
p3687
sVauthor_flair_css_class
p3688
NsVstickied
p3689
I00
sVauthor
p3690
VThomasEdmund84
p3691
sVsubreddit
p3692
Vchangemyview
p3693
sVauthor_flair_text
p3694
V17\u2206
p3695
sVcreated_utc
p3696
I1517259014
sVsubreddit_id
p3697
Vt5_2w2s8
p3698
sVdistinguished
p3699
NsVparent_id
p3700
Vt1_dtfa0lp
p3701
sVscore
p3702
I3
sVis_submitter
p3703
I00
sVgilded
p3704
I0
sVid
p3705
Vdtfhhvz
p3706
sVcan_gild
p3707
I01
sVlink_id
p3708
Vt3_7tu0ft
p3709
sVretrieved_on
p3710
I1518403002
sVcontroversiality
p3711
I0
ssg644
Nsbsg45
g0
(g604
g2
Ntp3712
Rp3713
(dp3714
g608
S'dtfa0lp'
p3715
sg610
g611
sg612
(dp3716
Vbody
p3717
V[deleted]
p3718
sVedited
p3719
I00
sVpermalink
p3720
V/r/changemyview/comments/7tu0ft/cmv_spoilers_with_the_exception_of_a_single_scene/dtfc7o9/
p3721
sVsubreddit_type
p3722
Vpublic
p3723
sVauthor_flair_css_class
p3724
NsVstickied
p3725
I00
sVauthor
p3726
V[deleted]
p3727
sVsubreddit
p3728
Vchangemyview
p3729
sVauthor_flair_text
p3730
NsVcreated_utc
p3731
I1517254064
sVsubreddit_id
p3732
Vt5_2w2s8
p3733
sVdistinguished
p3734
NsVparent_id
p3735
Vt1_dtfa0lp
p3736
sVscore
p3737
I5
sVis_submitter
p3738
I00
sVgilded
p3739
I0
sVid
p3740
Vdtfc7o9
p3741
sVcan_gild
p3742
I01
sVlink_id
p3743
Vt3_7tu0ft
p3744
sVretrieved_on
p3745
I1518400397
sVcontroversiality
p3746
I0
ssg644
(dp3747
g361
g0
(g604
g2
Ntp3748
Rp3749
(dp3750
g608
S'dtfc7o9'
p3751
sg610
g611
sg612
(dp3752
Vbody
p3753
VNot sure, but people/things looking "weird" isn't unusual at all for that film
p3754
sVedited
p3755
I00
sVpermalink
p3756
V/r/changemyview/comments/7tu0ft/cmv_spoilers_with_the_exception_of_a_single_scene/dtfebiy/
p3757
sVsubreddit_type
p3758
Vpublic
p3759
sVauthor_flair_css_class
p3760
NsVstickied
p3761
I00
sVauthor
p3762
VZeusThunder369
p3763
sVsubreddit
p3764
Vchangemyview
p3765
sVauthor_flair_text
p3766
V7\u2206
p3767
sVcreated_utc
p3768
I1517256045
sVsubreddit_id
p3769
Vt5_2w2s8
p3770
sVdistinguished
p3771
NsVparent_id
p3772
Vt1_dtfc7o9
p3773
sVscore
p3774
I2
sVis_submitter
p3775
I01
sVgilded
p3776
I0
sVid
p3777
Vdtfebiy
p3778
sVcan_gild
p3779
I01
sVlink_id
p3780
Vt3_7tu0ft
p3781
sVretrieved_on
p3782
I1518401436
sVcontroversiality
p3783
I0
ssg644
(dp3784
g50
g0
(g604
g2
Ntp3785
Rp3786
(dp3787
g608
S'dtfebiy'
p3788
sg610
g611
sg612
(dp3789
Vbody
p3790
V[deleted]
p3791
sVedited
p3792
I00
sVpermalink
p3793
V/r/changemyview/comments/7tu0ft/cmv_spoilers_with_the_exception_of_a_single_scene/dtfijdb/
p3794
sVsubreddit_type
p3795
Vpublic
p3796
sVauthor_flair_css_class
p3797
NsVstickied
p3798
I00
sVauthor
p3799
V[deleted]
p3800
sVsubreddit
p3801
Vchangemyview
p3802
sVauthor_flair_text
p3803
NsVcreated_utc
p3804
I1517259993
sVsubreddit_id
p3805
Vt5_2w2s8
p3806
sVdistinguished
p3807
NsVparent_id
p3808
Vt1_dtfebiy
p3809
sVscore
p3810
I5
sVis_submitter
p3811
I00
sVgilded
p3812
I0
sVid
p3813
Vdtfijdb
p3814
sVcan_gild
p3815
I01
sVlink_id
p3816
Vt3_7tu0ft
p3817
sVretrieved_on
p3818
I1518403504
sVcontroversiality
p3819
I0
ssg644
(dp3820
g153
g0
(g604
g2
Ntp3821
Rp3822
(dp3823
g608
S'dtfijdb'
p3824
sg610
g611
sg612
(dp3825
Vbody
p3826
VTake a look at some of the hairstyles on Nar Shaddaa:\u000a\u000ahttps://starwarsanon.files.wordpress.com/2013/08/wanna-buy-some-death-sticks.jpg
p3827
sVedited
p3828
I00
sVpermalink
p3829
V/r/changemyview/comments/7tu0ft/cmv_spoilers_with_the_exception_of_a_single_scene/dtfoxhg/
p3830
sVsubreddit_type
p3831
Vpublic
p3832
sVauthor_flair_css_class
p3833
NsVstickied
p3834
I00
sVauthor
p3835
VDraculea
p3836
sVsubreddit
p3837
Vchangemyview
p3838
sVauthor_flair_text
p3839
NsVcreated_utc
p3840
I1517266189
sVsubreddit_id
p3841
Vt5_2w2s8
p3842
sVdistinguished
p3843
NsVparent_id
p3844
Vt1_dtfijdb
p3845
sVscore
p3846
I3
sVis_submitter
p3847
I00
sVgilded
p3848
I0
sVid
p3849
Vdtfoxhg
p3850
sVcan_gild
p3851
I01
sVlink_id
p3852
Vt3_7tu0ft
p3853
sVretrieved_on
p3854
I1518406756
sVcontroversiality
p3855
I0
ssg644
(dp3856
g53
g0
(g604
g2
Ntp3857
Rp3858
(dp3859
g608
S'dtfoxhg'
p3860
sg610
g611
sg612
(dp3861
Vbody
p3862
V[deleted]
p3863
sVedited
p3864
I00
sVpermalink
p3865
V/r/changemyview/comments/7tu0ft/cmv_spoilers_with_the_exception_of_a_single_scene/dtfqcvr/
p3866
sVsubreddit_type
p3867
Vpublic
p3868
sVauthor_flair_css_class
p3869
NsVstickied
p3870
I00
sVauthor
p3871
V[deleted]
p3872
sVsubreddit
p3873
Vchangemyview
p3874
sVauthor_flair_text
p3875
NsVcreated_utc
p3876
I1517267650
sVsubreddit_id
p3877
Vt5_2w2s8
p3878
sVdistinguished
p3879
NsVparent_id
p3880
Vt1_dtfoxhg
p3881
sVscore
p3882
I2
sVis_submitter
p3883
I00
sVgilded
p3884
I0
sVid
p3885
Vdtfqcvr
p3886
sVcan_gild
p3887
I01
sVlink_id
p3888
Vt3_7tu0ft
p3889
sVretrieved_on
p3890
I1518407459
sVcontroversiality
p3891
I0
ssg644
(dp3892
g154
g3278
ssbssbssbssbssbssbssbsg208
g2329
sg468
g0
(g604
g2
Ntp3893
Rp3894
(dp3895
g608
S'dtf6vr0'
p3896
sg610
g611
sg612
(dp3897
Vbody
p3898
V&gt; Well, they haven't included any Native Americans or trans people yet.\u000a\u000aAnd they also haven't included any Ethiopians, Bangladeshis, physically disabled people, children, Romanies, or Buddhists yet. I don't mean to sound snarky, but its impossible to reasonably believe *every* demographic can be represented in a single movie; but that doesn't mean the cast isn't still extremely diverse.\u000a\u000a&gt;In the case of Star Wars, the character's gender is never part of the reason why the character is perfect.\u000a\u000aCan you name an evil female character in Star Wars? Outside of Captain Phasma, I guess.\u000a\u000aMy point is you're seeing a group that is largely comprised of ethnically diverse men and women fighting against an empire solely made up of white males. \u000a\u000aI'm not saying this is a problem, I'm just pointing out where people make the connections.
p3899
sVedited
p3900
I00
sVpermalink
p3901
V/r/changemyview/comments/7tu0ft/cmv_spoilers_with_the_exception_of_a_single_scene/dtf7hh1/
p3902
sVsubreddit_type
p3903
Vpublic
p3904
sVauthor_flair_css_class
p3905
NsVstickied
p3906
I00
sVauthor
p3907
VUNRThrowAway
p3908
sVsubreddit
p3909
Vchangemyview
p3910
sVauthor_flair_text
p3911
V1\u2206
p3912
sVcreated_utc
p3913
I1517249731
sVsubreddit_id
p3914
Vt5_2w2s8
p3915
sVdistinguished
p3916
NsVparent_id
p3917
Vt1_dtf6vr0
p3918
sVscore
p3919
I11
sVis_submitter
p3920
I00
sVgilded
p3921
I0
sVid
p3922
Vdtf7hh1
p3923
sVcan_gild
p3924
I01
sVlink_id
p3925
Vt3_7tu0ft
p3926
sVretrieved_on
p3927
I1518398017
sVcontroversiality
p3928
I0
ssg644
(dp3929
g354
g0
(g604
g2
Ntp3930
Rp3931
(dp3932
g608
S'dtf7hh1'
p3933
sg610
g611
sg612
(dp3934
Vbody
p3935
V&gt; I'm not saying this is a problem, I'm just pointing out where people make the connections.\u000a\u000aSure, but it's just as silly doing that as it is to notice "too many" white males in a cast and declare the movie is racist.\u000a\u000aAs with the good characters, the fact that the bad characters are white is never brought up in dialogue. No one ever states that them being white has anything to do with their evil actions.
p3936
sVedited
p3937
I00
sVpermalink
p3938
V/r/changemyview/comments/7tu0ft/cmv_spoilers_with_the_exception_of_a_single_scene/dtf7q59/
p3939
sVsubreddit_type
p3940
Vpublic
p3941
sVauthor_flair_css_class
p3942
NsVstickied
p3943
I00
sVauthor
p3944
VZeusThunder369
p3945
sVsubreddit
p3946
Vchangemyview
p3947
sVauthor_flair_text
p3948
V7\u2206
p3949
sVcreated_utc
p3950
I1517249946
sVsubreddit_id
p3951
Vt5_2w2s8
p3952
sVdistinguished
p3953
NsVparent_id
p3954
Vt1_dtf7hh1
p3955
sVscore
p3956
I1
sVis_submitter
p3957
I01
sVgilded
p3958
I0
sVid
p3959
Vdtf7q59
p3960
sVcan_gild
p3961
I01
sVlink_id
p3962
Vt3_7tu0ft
p3963
sVretrieved_on
p3964
I1518398136
sVcontroversiality
p3965
I0
ssg644
(dp3966
g18
g0
(g604
g2
Ntp3967
Rp3968
(dp3969
g608
S'dtf7q59'
p3970
sg610
g611
sg612
(dp3971
Vbody
p3972
VI agree with your main point in the original post about the movies themselves not having any social justice content, but the filmmakers definitely had that in mind when making the movies. And I have a specific thing to ask you about:\u000a\u000aDoes something really need to be brought up in dialogue before it matters, before it's blatant? You keep making this point that the movie's characters never have lines acknowledging the diversity or lack thereof, but at what point do we have to decide that what we see onscreen is the result of a decision-making process which can be inferred and analyzed regardless of whether any characters acknowledge it?
p3973
sVedited
p3974
I00
sVpermalink
p3975
V/r/changemyview/comments/7tu0ft/cmv_spoilers_with_the_exception_of_a_single_scene/dtf8i6u/
p3976
sVsubreddit_type
p3977
Vpublic
p3978
sVauthor_flair_css_class
p3979
NsVstickied
p3980
I00
sVauthor
p3981
Vrich-evans
p3982
sVsubreddit
p3983
Vchangemyview
p3984
sVauthor_flair_text
p3985
NsVcreated_utc
p3986
I1517250645
sVsubreddit_id
p3987
Vt5_2w2s8
p3988
sVdistinguished
p3989
NsVparent_id
p3990
Vt1_dtf7q59
p3991
sVscore
p3992
I4
sVis_submitter
p3993
I00
sVgilded
p3994
I0
sVid
p3995
Vdtf8i6u
p3996
sVcan_gild
p3997
I01
sVlink_id
p3998
Vt3_7tu0ft
p3999
sVretrieved_on
p4000
I1518398523
sVcontroversiality
p4001
I0
ssg644
(dp4002
g356
g0
(g604
g2
Ntp4003
Rp4004
(dp4005
g608
S'dtf8i6u'
p4006
sg610
g611
sg612
(dp4007
Vbody
p4008
VI don't know exactly where the line is, but yeah sure there could be a point where it's be obvious the casting was specifically avoiding white people. Star Wars is far from that point though.
p4009
sVedited
p4010
I00
sVpermalink
p4011
V/r/changemyview/comments/7tu0ft/cmv_spoilers_with_the_exception_of_a_single_scene/dtf8wn4/
p4012
sVsubreddit_type
p4013
Vpublic
p4014
sVauthor_flair_css_class
p4015
NsVstickied
p4016
I00
sVauthor
p4017
VZeusThunder369
p4018
sVsubreddit
p4019
Vchangemyview
p4020
sVauthor_flair_text
p4021
V7\u2206
p4022
sVcreated_utc
p4023
I1517251009
sVsubreddit_id
p4024
Vt5_2w2s8
p4025
sVdistinguished
p4026
NsVparent_id
p4027
Vt1_dtf8i6u
p4028
sVscore
p4029
I1
sVis_submitter
p4030
I01
sVgilded
p4031
I0
sVid
p4032
Vdtf8wn4
p4033
sVcan_gild
p4034
I01
sVlink_id
p4035
Vt3_7tu0ft
p4036
sVretrieved_on
p4037
I1518398727
sVcontroversiality
p4038
I0
ssg644
(dp4039
g19
g0
(g604
g2
Ntp4040
Rp4041
(dp4042
g608
S'dtf8wn4'
p4043
sg610
g611
sg612
(dp4044
Vbody
p4045
VI agree with that too. But above, you say that:\u000a\u000a&gt;the fact that the bad characters are white is never brought up in dialogue. No one ever states that them being white has anything to do with their evil actions.\u000a\u000aWhich, again... I agree with. But is there not a pretty blatant effort to not cast any minority actors as bad guys in those movies, and isn't that something interesting per se, even if it's not mentioned in the dialogue? Even Phasma is never seen doing anything bad, or like, making the evil decision that makes you root against the character. She's just a stormtrooper commander, doing her job.
p4046
sVedited
p4047
I00
sVpermalink
p4048
V/r/changemyview/comments/7tu0ft/cmv_spoilers_with_the_exception_of_a_single_scene/dtf9vmc/
p4049
sVsubreddit_type
p4050
Vpublic
p4051
sVauthor_flair_css_class
p4052
NsVstickied
p4053
I00
sVauthor
p4054
Vrich-evans
p4055
sVsubreddit
p4056
Vchangemyview
p4057
sVauthor_flair_text
p4058
NsVcreated_utc
p4059
I1517251898
sVsubreddit_id
p4060
Vt5_2w2s8
p4061
sVdistinguished
p4062
NsVparent_id
p4063
Vt1_dtf8wn4
p4064
sVscore
p4065
I1
sVis_submitter
p4066
I00
sVgilded
p4067
I0
sVid
p4068
Vdtf9vmc
p4069
sVcan_gild
p4070
I01
sVlink_id
p4071
Vt3_7tu0ft
p4072
sVretrieved_on
p4073
I1518399209
sVcontroversiality
p4074
I0
ssg644
(dp4075
g360
g0
(g604
g2
Ntp4076
Rp4077
(dp4078
g608
S'dtf9vmc'
p4079
sg610
g611
sg612
(dp4080
Vbody
p4081
VWell there's plenty of ways they could "go there" EG: Making it part of the plot that the white people are out to oppress the brown people (in explaining exactly why the empire wants power).\u000a\u000aOne great example of a movie that *didn't* go there is Wonder Woman. In the scene where they state "you can't go in there, it's No Man's Land!", the opportunity to pull "I'm a WOMAN!" was obvious, but they didn't do that.\u000a
p4082
sVedited
p4083
I00
sVpermalink
p4084
V/r/changemyview/comments/7tu0ft/cmv_spoilers_with_the_exception_of_a_single_scene/dtfaerl/
p4085
sVsubreddit_type
p4086
Vpublic
p4087
sVauthor_flair_css_class
p4088
NsVstickied
p4089
I00
sVauthor
p4090
VZeusThunder369
p4091
sVsubreddit
p4092
Vchangemyview
p4093
sVauthor_flair_text
p4094
V7\u2206
p4095
sVcreated_utc
p4096
I1517252378
sVsubreddit_id
p4097
Vt5_2w2s8
p4098
sVdistinguished
p4099
NsVparent_id
p4100
Vt1_dtf9vmc
p4101
sVscore
p4102
I1
sVis_submitter
p4103
I01
sVgilded
p4104
I0
sVid
p4105
Vdtfaerl
p4106
sVcan_gild
p4107
I01
sVlink_id
p4108
Vt3_7tu0ft
p4109
sVretrieved_on
p4110
I1518399468
sVcontroversiality
p4111
I0
ssg644
Nsbssbssbsg359
g0
(g604
g2
Ntp4112
Rp4113
(dp4114
g608
S'dtf8i6u'
p4115
sg610
g611
sg612
(dp4116
Vbody
p4117
V&gt; Does something really need to be brought up in dialogue before it matters, before it's blatant\u000a\u000aYes. It doesn't need to be literal and obvious, but yeah there needs to be *something* in the dialogue. It can't just be the fact that an actor isn't a white/male.
p4118
sVedited
p4119
I00
sVpermalink
p4120
V/r/changemyview/comments/7tu0ft/cmv_spoilers_with_the_exception_of_a_single_scene/dtfa41s/
p4121
sVsubreddit_type
p4122
Vpublic
p4123
sVauthor_flair_css_class
p4124
NsVstickied
p4125
I00
sVauthor
p4126
VZeusThunder369
p4127
sVsubreddit
p4128
Vchangemyview
p4129
sVauthor_flair_text
p4130
V7\u2206
p4131
sVcreated_utc
p4132
I1517252110
sVsubreddit_id
p4133
Vt5_2w2s8
p4134
sVdistinguished
p4135
NsVparent_id
p4136
Vt1_dtf8i6u
p4137
sVscore
p4138
I1
sVis_submitter
p4139
I01
sVgilded
p4140
I0
sVid
p4141
Vdtfa41s
p4142
sVcan_gild
p4143
I01
sVlink_id
p4144
Vt3_7tu0ft
p4145
sVretrieved_on
p4146
I1518399322
sVcontroversiality
p4147
I0
ssg644
(dp4148
g377
g0
(g604
g2
Ntp4149
Rp4150
(dp4151
g608
S'dtfa41s'
p4152
sg610
g611
sg612
(dp4153
Vbody
p4154
VI disagree. Imagine an opening scene where an entirely white, American-accented utopia is shown, guarded by a huge, gleaming wall and on the other side of that wall are teeming masses of non-whites engaging in violence and chaos. Then the movie shows a young male whose parents have fallen ill and died. It shows his struggle through life and the way he is able to leverage his cleverness and hard work to overcome obstacles and become successful. Maybe he becomes the doctor that cures the disease his parents died of or something inspirational. The movie fades out from a scene showing his nuclear family surrounded by the trappings of a life of hard work and honest accomplishment. \u000a\u000aIf the people outside of the walls are never spoken of or seen after that first scene (and even then, it's just a visual sweep over their underdeveloped, chaotic slums) and the entire movie focuses on the way this man pulled himself up by his bootstraps entirely within the gleaming walls of the utopia, would any criticism about race or propaganda be valid? if so, why? \u000a
p4155
sVedited
p4156
I00
sVpermalink
p4157
V/r/changemyview/comments/7tu0ft/cmv_spoilers_with_the_exception_of_a_single_scene/dtfjijn/
p4158
sVsubreddit_type
p4159
Vpublic
p4160
sVauthor_flair_css_class
p4161
NsVstickied
p4162
I00
sVauthor
p4163
VSpackledgoat
p4164
sVsubreddit
p4165
Vchangemyview
p4166
sVauthor_flair_text
p4167
NsVcreated_utc
p4168
I1517260906
sVsubreddit_id
p4169
Vt5_2w2s8
p4170
sVdistinguished
p4171
NsVparent_id
p4172
Vt1_dtfa41s
p4173
sVscore
p4174
I2
sVis_submitter
p4175
I00
sVgilded
p4176
I0
sVid
p4177
Vdtfjijn
p4178
sVcan_gild
p4179
I01
sVlink_id
p4180
Vt3_7tu0ft
p4181
sVretrieved_on
p4182
I1518403984
sVcontroversiality
p4183
I0
ssg644
Nsbsg496
g0
(g604
g2
Ntp4184
Rp4185
(dp4186
g608
S'dtfa41s'
p4187
sg610
g611
sg612
(dp4188
Vbody
p4189
VIt's never stated in dialog that the Empire (in the original trilogy) is the villain because they all sound like watered down British military officers of the 1800s, but they do.\u000a\u000aIt's also never stated in dialog that the Trade Federation is a villain because they sound like a bad Japanese dub job, although they do.\u000a\u000aIt's also never stated Jar Jar Binks is a buffoon because he sounds like a bad Jamaican stereotype, although he does.\u000a\u000aThere were definitely people who got upset about the latter two.  I don't recall anyone getting upset at the former, at least not seriously.  Yet none of those were stated in dialog; they were simply implied by characterization.\u000a\u000aI'm not sure I'm making a precise point here one way or another; simply observing that there is more to racial or ethnic presentation (positive and negative) than explicit dialog, and the way people have responded to the presentation has varied depending on what group is being presented.
p4190
sVedited
p4191
I00
sVpermalink
p4192
V/r/changemyview/comments/7tu0ft/cmv_spoilers_with_the_exception_of_a_single_scene/dtflowt/
p4193
sVsubreddit_type
p4194
Vpublic
p4195
sVauthor_flair_css_class
p4196
NsVstickied
p4197
I00
sVauthor
p4198
VCrell
p4199
sVsubreddit
p4200
Vchangemyview
p4201
sVauthor_flair_text
p4202
NsVcreated_utc
p4203
I1517262945
sVsubreddit_id
p4204
Vt5_2w2s8
p4205
sVdistinguished
p4206
NsVparent_id
p4207
Vt1_dtfa41s
p4208
sVscore
p4209
I3
sVis_submitter
p4210
I00
sVgilded
p4211
I0
sVid
p4212
Vdtflowt
p4213
sVcan_gild
p4214
I01
sVlink_id
p4215
Vt3_7tu0ft
p4216
sVretrieved_on
p4217
I1518405059
sVcontroversiality
p4218
I0
ssg644
Nsbssbssbssbssbsg351
g0
(g604
g2
Ntp4219
Rp4220
(dp4221
g608
S'dtf5ulb'
p4222
sg610
g611
sg612
(dp4223
Vbody
p4224
V&gt; SWU is going for the most ethnically diverse cast reasonably possible, and as such is neglecting the inclusion of interesting alien characters.\u000a\u000aWell, they haven't included any Native Americans or trans people yet. Not that doing so would be inherently "SJW" (It could be, just not inherently). So even in the casting they haven't crossed all lines yet.\u000a\u000a&gt; all of the prominent female characters as being portrayed as perfectly moral, capable people\u000a\u000aThis happens all of the time with white/male characters too. 99% of the time it's just coincidence. The key thing is whether or not they are 'perfect' *because* of their gender/race, or if the character happens to just be perfect, and the person playing the character happens to be not white/male. In the case of Star Wars, the character's gender is never part of the reason why the character is perfect.
p4225
sVedited
p4226
I00
sVpermalink
p4227
V/r/changemyview/comments/7tu0ft/cmv_spoilers_with_the_exception_of_a_single_scene/dtf6vr0/
p4228
sVsubreddit_type
p4229
Vpublic
p4230
sVauthor_flair_css_class
p4231
NsVstickied
p4232
I00
sVauthor
p4233
VZeusThunder369
p4234
sVsubreddit
p4235
Vchangemyview
p4236
sVauthor_flair_text
p4237
V7\u2206
p4238
sVcreated_utc
p4239
I1517249185
sVsubreddit_id
p4240
Vt5_2w2s8
p4241
sVdistinguished
p4242
NsVparent_id
p4243
Vt1_dtf5ulb
p4244
sVscore
p4245
I-1
sVis_submitter
p4246
I01
sVgilded
p4247
I0
sVid
p4248
Vdtf6vr0
p4249
sVcan_gild
p4250
I01
sVlink_id
p4251
Vt3_7tu0ft
p4252
sVretrieved_on
p4253
I1518397720
sVcontroversiality
p4254
I1
ssg644
(dp4255
g468
g3894
ssbsg571
g3170
sg258
g2366
sg399
g3566
sg221
g0
(g604
g2
Ntp4256
Rp4257
(dp4258
g608
S'dtf63hu'
p4259
sg610
g611
sg612
(dp4260
Vbody
p4261
V&gt;There is no Mary Sue issue. A core premise of the films is that Kylo Ren is uncommonly powerful, and it is confirmed in VIII that Rey is the opposite of that pendulum - "The dark rises, and the light to meet it." Interpreting her abilities/portrayal as a "Mary Sue" deliberately ignores what's been said in the films.\u000a\u000aIsn't this _a major part of_ what makes her a Mary Sue, though? The fact that a totally new mechanic ("the dark rises, and the light to meet it") had to be introduced to justify why she is so powerful, special, and cool?
p4262
sVedited
p4263
I00
sVpermalink
p4264
V/r/changemyview/comments/7tu0ft/cmv_spoilers_with_the_exception_of_a_single_scene/dtf9ygm/
p4265
sVsubreddit_type
p4266
Vpublic
p4267
sVauthor_flair_css_class
p4268
NsVstickied
p4269
I00
sVauthor
p4270
Vyyzjertl
p4271
sVsubreddit
p4272
Vchangemyview
p4273
sVauthor_flair_text
p4274
V56\u2206
p4275
sVcreated_utc
p4276
I1517251970
sVsubreddit_id
p4277
Vt5_2w2s8
p4278
sVdistinguished
p4279
NsVparent_id
p4280
Vt1_dtf63hu
p4281
sVscore
p4282
I5
sVis_submitter
p4283
I00
sVgilded
p4284
I0
sVid
p4285
Vdtf9ygm
p4286
sVcan_gild
p4287
I01
sVlink_id
p4288
Vt3_7tu0ft
p4289
sVretrieved_on
p4290
I1518399249
sVcontroversiality
p4291
I0
ssg644
(dp4292
g386
g0
(g604
g2
Ntp4293
Rp4294
(dp4295
g608
S'dtf9ygm'
p4296
sg610
g611
sg612
(dp4297
Vbody
p4298
VWas that new mechanic introduced to explain Rey, or was Rey introduced to show the new mechanic?
p4299
sVedited
p4300
I00
sVpermalink
p4301
V/r/changemyview/comments/7tu0ft/cmv_spoilers_with_the_exception_of_a_single_scene/dtfao59/
p4302
sVsubreddit_type
p4303
Vpublic
p4304
sVauthor_flair_css_class
p4305
NsVstickied
p4306
I00
sVauthor
p4307
VRoflcaust
p4308
sVsubreddit
p4309
Vchangemyview
p4310
sVauthor_flair_text
p4311
NsVcreated_utc
p4312
I1517252618
sVsubreddit_id
p4313
Vt5_2w2s8
p4314
sVdistinguished
p4315
NsVparent_id
p4316
Vt1_dtf9ygm
p4317
sVscore
p4318
I-2
sVis_submitter
p4319
I00
sVgilded
p4320
I0
sVid
p4321
Vdtfao59
p4322
sVcan_gild
p4323
I01
sVlink_id
p4324
Vt3_7tu0ft
p4325
sVretrieved_on
p4326
I1518399645
sVcontroversiality
p4327
I0
ssg644
(dp4328
g222
g0
(g604
g2
Ntp4329
Rp4330
(dp4331
g608
S'dtfao59'
p4332
sg610
g611
sg612
(dp4333
Vbody
p4334
VThe mechanic was incorporated to explain Rey. We can tell this both from the fact that the mechanic appeared after Rey did, and the fact that it's ridiculous for the main character to be incorporated to show a mechanic.
p4335
sVedited
p4336
I00
sVpermalink
p4337
V/r/changemyview/comments/7tu0ft/cmv_spoilers_with_the_exception_of_a_single_scene/dtfavy2/
p4338
sVsubreddit_type
p4339
Vpublic
p4340
sVauthor_flair_css_class
p4341
NsVstickied
p4342
I00
sVauthor
p4343
Vyyzjertl
p4344
sVsubreddit
p4345
Vchangemyview
p4346
sVauthor_flair_text
p4347
V56\u2206
p4348
sVcreated_utc
p4349
I1517252820
sVsubreddit_id
p4350
Vt5_2w2s8
p4351
sVdistinguished
p4352
NsVparent_id
p4353
Vt1_dtfao59
p4354
sVscore
p4355
I4
sVis_submitter
p4356
I00
sVgilded
p4357
I0
sVid
p4358
Vdtfavy2
p4359
sVcan_gild
p4360
I01
sVlink_id
p4361
Vt3_7tu0ft
p4362
sVretrieved_on
p4363
I1518399751
sVcontroversiality
p4364
I0
ssg644
(dp4365
g387
g0
(g604
g2
Ntp4366
Rp4367
(dp4368
g608
S'dtfavy2'
p4369
sg610
g611
sg612
(dp4370
Vbody
p4371
VThe first premise is based on an assumption that the mechanic was created after Rey because it was explained after Rey appeared in the trilogy.  For all we know (at least all I know), the screenwriters plotted the mechanic out beforehand when plotting the overarching plot of the trilogy, but chose not to explain it until VIII.  The second premise I\u2019m not sure I agree with.  If the screenwriters wanted to emphasize the balance of Light and Dark in the final trilogy, then it seems natural to conceive a main character with that idea in mind.
p4372
sVedited
p4373
I00
sVpermalink
p4374
V/r/changemyview/comments/7tu0ft/cmv_spoilers_with_the_exception_of_a_single_scene/dtfbmgc/
p4375
sVsubreddit_type
p4376
Vpublic
p4377
sVauthor_flair_css_class
p4378
NsVstickied
p4379
I00
sVauthor
p4380
VRoflcaust
p4381
sVsubreddit
p4382
Vchangemyview
p4383
sVauthor_flair_text
p4384
NsVcreated_utc
p4385
I1517253514
sVsubreddit_id
p4386
Vt5_2w2s8
p4387
sVdistinguished
p4388
NsVparent_id
p4389
Vt1_dtfavy2
p4390
sVscore
p4391
I-1
sVis_submitter
p4392
I00
sVgilded
p4393
I0
sVid
p4394
Vdtfbmgc
p4395
sVcan_gild
p4396
I01
sVlink_id
p4397
Vt3_7tu0ft
p4398
sVretrieved_on
p4399
I1518400107
sVcontroversiality
p4400
I0
ssg644
(dp4401
g223
g0
(g604
g2
Ntp4402
Rp4403
(dp4404
g608
S'dtfbmgc'
p4405
sg610
g611
sg612
(dp4406
Vbody
p4407
VWhether a character is a Mary Sue is a function of the text, not of the intentions of the screenwriters. From the perspective of the text, the mechanic is introduced after Rey, and has the sole narrative effect of explaining to the viewer why Rey is so powerful (and of making Rey seem cool and awesome). Again from the perspective of the text, nobody is going to watch Star Wars and, if asked "what is Rey's function in the story," answer "to support the "dark rises and the light to meet it" mechanic.\u000a\u000aWhat the screenwriters may or may not have intended is irrelevant.
p4408
sVedited
p4409
I00
sVpermalink
p4410
V/r/changemyview/comments/7tu0ft/cmv_spoilers_with_the_exception_of_a_single_scene/dtfgd0k/
p4411
sVsubreddit_type
p4412
Vpublic
p4413
sVauthor_flair_css_class
p4414
NsVstickied
p4415
I00
sVauthor
p4416
Vyyzjertl
p4417
sVsubreddit
p4418
Vchangemyview
p4419
sVauthor_flair_text
p4420
V56\u2206
p4421
sVcreated_utc
p4422
I1517257956
sVsubreddit_id
p4423
Vt5_2w2s8
p4424
sVdistinguished
p4425
NsVparent_id
p4426
Vt1_dtfbmgc
p4427
sVscore
p4428
I3
sVis_submitter
p4429
I00
sVgilded
p4430
I0
sVid
p4431
Vdtfgd0k
p4432
sVcan_gild
p4433
I01
sVlink_id
p4434
Vt3_7tu0ft
p4435
sVretrieved_on
p4436
I1518402446
sVcontroversiality
p4437
I0
ssg644
(dp4438
g388
g2807
ssbssbssbssbssbsg389
g2988
sg51
g3459
sg44
g0
(g604
g2
Ntp4439
Rp4440
(dp4441
g608
S'7tu0ft'
p4442
sg610
g611
sg612
(dp4443
Vbody
p4444
V[removed]
p4445
sVedited
p4446
I00
sVpermalink
p4447
V/r/changemyview/comments/7tu0ft/cmv_spoilers_with_the_exception_of_a_single_scene/dtf8cz2/
p4448
sVsubreddit_type
p4449
Vpublic
p4450
sVauthor_flair_css_class
p4451
NsVstickied
p4452
I00
sVauthor
p4453
V[deleted]
p4454
sVsubreddit
p4455
Vchangemyview
p4456
sVauthor_flair_text
p4457
NsVcreated_utc
p4458
I1517250514
sVsubreddit_id
p4459
Vt5_2w2s8
p4460
sVdistinguished
p4461
NsVparent_id
p4462
Vt3_7tu0ft
p4463
sVscore
p4464
I-1
sVis_submitter
p4465
I00
sVgilded
p4466
I0
sVid
p4467
Vdtf8cz2
p4468
sVcan_gild
p4469
I01
sVlink_id
p4470
Vt3_7tu0ft
p4471
sVretrieved_on
p4472
I1518398453
sVcontroversiality
p4473
I1
ssg644
(dp4474
g90
g3060
ssbsg362
g0
(g604
g2
Ntp4475
Rp4476
(dp4477
g608
S'dtfbr2l'
p4478
sg610
g611
sg612
(dp4479
Vbody
p4480
VI didn't watch the movie, was too turned off by the marketing. I heard though that it brought women up at the expense of men.\u000a\u000a&gt; Honestly, this entire concept really appears so nebulous and ill-defined\u000a\u000aPerhaps, but certainly it's superior to just counting the not-white people in a film and declaring it's SJW because there is too many right?
p4481
sVedited
p4482
I00
sVpermalink
p4483
V/r/changemyview/comments/7tu0ft/cmv_spoilers_with_the_exception_of_a_single_scene/dtfeeqz/
p4484
sVsubreddit_type
p4485
Vpublic
p4486
sVauthor_flair_css_class
p4487
NsVstickied
p4488
I00
sVauthor
p4489
VZeusThunder369
p4490
sVsubreddit
p4491
Vchangemyview
p4492
sVauthor_flair_text
p4493
V7\u2206
p4494
sVcreated_utc
p4495
I1517256127
sVsubreddit_id
p4496
Vt5_2w2s8
p4497
sVdistinguished
p4498
NsVparent_id
p4499
Vt1_dtfbr2l
p4500
sVscore
p4501
I1
sVis_submitter
p4502
I01
sVgilded
p4503
I0
sVid
p4504
Vdtfeeqz
p4505
sVcan_gild
p4506
I01
sVlink_id
p4507
Vt3_7tu0ft
p4508
sVretrieved_on
p4509
I1518401482
sVcontroversiality
p4510
I0
ssg644
(dp4511
g329
g1814
ssbsg353
g0
(g604
g2
Ntp4512
Rp4513
(dp4514
g608
S'dtf6ika'
p4515
sg610
g611
sg612
(dp4516
Vbody
p4517
V&gt; Could you define it?\u000a\u000aYeah absolutely. The key difference is whether or not the character is defined by their race/gender, or if their race/gender is what gives the character value. Simply *being* a certain race/gender isn't inherently SJW.\u000a\u000aI didn't actually watch the movie, but the recent Ghostbusters is a great example. The movie was promoted as starring female characters, and the fact that they are female is what *made the movie better* (was the claim made). EG - Character was able to do this amazing thing *because* they are a certain gender/race.\u000a\u000aThe opposite can also be SJW. X character is evil *because* they are a white male.
p4518
sVedited
p4519
I00
sVpermalink
p4520
V/r/changemyview/comments/7tu0ft/cmv_spoilers_with_the_exception_of_a_single_scene/dtf7inm/
p4521
sVsubreddit_type
p4522
Vpublic
p4523
sVauthor_flair_css_class
p4524
NsVstickied
p4525
I00
sVauthor
p4526
VZeusThunder369
p4527
sVsubreddit
p4528
Vchangemyview
p4529
sVauthor_flair_text
p4530
V7\u2206
p4531
sVcreated_utc
p4532
I1517249760
sVsubreddit_id
p4533
Vt5_2w2s8
p4534
sVdistinguished
p4535
NsVparent_id
p4536
Vt1_dtf6ika
p4537
sVscore
p4538
I7
sVis_submitter
p4539
I01
sVgilded
p4540
I0
sVid
p4541
Vdtf7inm
p4542
sVcan_gild
p4543
I01
sVlink_id
p4544
Vt3_7tu0ft
p4545
sVretrieved_on
p4546
I1518398034
sVcontroversiality
p4547
I0
ssg644
(dp4548
g327
g0
(g604
g2
Ntp4549
Rp4550
(dp4551
g608
S'dtf7inm'
p4552
sg610
g611
sg612
(dp4553
Vbody
p4554
VSo... this is something that happens in the marketing of a movie?  I don't recall any point in Ghostbusters that the characters were given value because they were women.  I'm not even sure what that means.  In what way could they be "given value?"\u000a\u000a&gt; The opposite can also be SJW. X character is evil because they are a white male.\u000a\u000aI literally have never seen this, and I'm having a lot of difficulty imagining it.  Could you give an example, so I can wrap my head around it?\u000a\u000a
p4555
sVedited
p4556
I00
sVpermalink
p4557
V/r/changemyview/comments/7tu0ft/cmv_spoilers_with_the_exception_of_a_single_scene/dtf7tug/
p4558
sVsubreddit_type
p4559
Vpublic
p4560
sVauthor_flair_css_class
p4561
NsVstickied
p4562
I00
sVauthor
p4563
VPreacherJudge
p4564
sVsubreddit
p4565
Vchangemyview
p4566
sVauthor_flair_text
p4567
V126\u2206
p4568
sVcreated_utc
p4569
I1517250038
sVsubreddit_id
p4570
Vt5_2w2s8
p4571
sVdistinguished
p4572
NsVparent_id
p4573
Vt1_dtf7inm
p4574
sVscore
p4575
I2
sVis_submitter
p4576
I00
sVgilded
p4577
I0
sVid
p4578
Vdtf7tug
p4579
sVcan_gild
p4580
I01
sVlink_id
p4581
Vt3_7tu0ft
p4582
sVretrieved_on
p4583
I1518398186
sVcontroversiality
p4584
I0
ssg644
(dp4585
g357
g0
(g604
g2
Ntp4586
Rp4587
(dp4588
g608
S'dtf7tug'
p4589
sg610
g611
sg612
(dp4590
Vbody
p4591
VIn the marketing of Ghostbusters, and comments from the director, it was clear that they felt the movie was better simply because the gender of the main actors was female\u000a\u000a&gt; Could you give an example, so I can wrap my head around it?\u000a\u000aThe Purge: Election Year. Combination of the "Keep America Great" slogan, nazism, and the white/male characters practicing it
p4592
sVedited
p4593
I00
sVpermalink
p4594
V/r/changemyview/comments/7tu0ft/cmv_spoilers_with_the_exception_of_a_single_scene/dtf9v66/
p4595
sVsubreddit_type
p4596
Vpublic
p4597
sVauthor_flair_css_class
p4598
NsVstickied
p4599
I00
sVauthor
p4600
VZeusThunder369
p4601
sVsubreddit
p4602
Vchangemyview
p4603
sVauthor_flair_text
p4604
V7\u2206
p4605
sVcreated_utc
p4606
I1517251886
sVsubreddit_id
p4607
Vt5_2w2s8
p4608
sVdistinguished
p4609
NsVparent_id
p4610
Vt1_dtf7tug
p4611
sVscore
p4612
I4
sVis_submitter
p4613
I01
sVgilded
p4614
I0
sVid
p4615
Vdtf9v66
p4616
sVcan_gild
p4617
I01
sVlink_id
p4618
Vt3_7tu0ft
p4619
sVretrieved_on
p4620
I1518399203
sVcontroversiality
p4621
I0
ssg644
(dp4622
g328
g0
(g604
g2
Ntp4623
Rp4624
(dp4625
g608
S'dtf9v66'
p4626
sg610
g611
sg612
(dp4627
Vbody
p4628
V&gt; In the marketing of Ghostbusters, and comments from the director, it was clear that they felt the movie was better simply because the gender of the main actors was female\u000a\u000aThis is in marketing; it's not in the movie itself.  Also saying "it was clear" while not providing quotes makes me think it's not really all that clear.\u000a\u000a&gt; The Purge: Election Year. Combination of the "Keep America Great" slogan, nazism, and the white/male characters practicing it\u000a\u000aI didn't see it, but this strikes me as being about Donald Trump.  It'd be making the point "this character is bad because he;s like Donald Trump" not "this character is bad because he's a white male."\u000a\u000aHonestly, this entire concept really appears so nebulous and ill-defined, this whole view is too slippery to be useful.
p4629
sVedited
p4630
I00
sVpermalink
p4631
V/r/changemyview/comments/7tu0ft/cmv_spoilers_with_the_exception_of_a_single_scene/dtfbr2l/
p4632
sVsubreddit_type
p4633
Vpublic
p4634
sVauthor_flair_css_class
p4635
NsVstickied
p4636
I00
sVauthor
p4637
VPreacherJudge
p4638
sVsubreddit
p4639
Vchangemyview
p4640
sVauthor_flair_text
p4641
V126\u2206
p4642
sVcreated_utc
p4643
I1517253634
sVsubreddit_id
p4644
Vt5_2w2s8
p4645
sVdistinguished
p4646
NsVparent_id
p4647
Vt1_dtf9v66
p4648
sVscore
p4649
I1
sVis_submitter
p4650
I00
sVgilded
p4651
I0
sVid
p4652
Vdtfbr2l
p4653
sVcan_gild
p4654
I01
sVlink_id
p4655
Vt3_7tu0ft
p4656
sVretrieved_on
p4657
I1518400174
sVcontroversiality
p4658
I0
ssg644
(dp4659
g362
g4476
ssbssbssbssbsg357
g4587
sg505
g0
(g604
g2
Ntp4660
Rp4661
(dp4662
g608
S'7tu0ft'
p4663
sg610
g611
sg612
(dp4664
Vbody
p4665
VThe first trilogy was the hero's archetype story. \u000a\u000aThe second was the archetype of the fall from grace. \u000a\u000aWhat is the third's story a story of? What's it's narrative? 
p4666
sVedited
p4667
I00
sVpermalink
p4668
V/r/changemyview/comments/7tu0ft/cmv_spoilers_with_the_exception_of_a_single_scene/dtfissq/
p4669
sVsubreddit_type
p4670
Vpublic
p4671
sVauthor_flair_css_class
p4672
NsVstickied
p4673
I00
sVauthor
p4674
V21stcenturygulag
p4675
sVsubreddit
p4676
Vchangemyview
p4677
sVauthor_flair_text
p4678
NsVcreated_utc
p4679
I1517260238
sVsubreddit_id
p4680
Vt5_2w2s8
p4681
sVdistinguished
p4682
NsVparent_id
p4683
Vt3_7tu0ft
p4684
sVscore
p4685
I4
sVis_submitter
p4686
I00
sVgilded
p4687
I0
sVid
p4688
Vdtfissq
p4689
sVcan_gild
p4690
I01
sVlink_id
p4691
Vt3_7tu0ft
p4692
sVretrieved_on
p4693
I1518403634
sVcontroversiality
p4694
I0
ssg644
Nsbsg365
g1925
sg19
g4041
sg251
g0
(g604
g2
Ntp4695
Rp4696
(dp4697
g608
S'7tu0ft'
p4698
sg610
g611
sg612
(dp4699
Vbody
p4700
VA few points of clarity;\u000a\u000a&gt;I think anyone that is complaining about the new Star Wars being "SJW propaganda" are really just uncomfortable with "too many" minorities being in a film.\u000a\u000aThis is a different claim than your premise, which is "there is no SJW propaganda in Star Wars." The former does not entail the latter. You defend your position that the propaganda isn't present, but you don't support your final statement that anyone who views it that way is uncomfortable with minorities. \u000a\u000a&gt; There is the Mary Sue issue, but that doesn't have anything to do with social justice.\u000a\u000aThis has been pretty thoroughly debunked. There is no Mary Sue issue. A core premise of the films is that Kylo Ren is uncommonly powerful, and it is confirmed in VIII that Rey is the opposite of that pendulum - "The dark rises, and the light to meet it." Interpreting her abilities/portrayal as a "Mary Sue" deliberately ignores what's been said in the films. \u000a\u000a\u000a\u000a
p4701
sVedited
p4702
I00
sVpermalink
p4703
V/r/changemyview/comments/7tu0ft/cmv_spoilers_with_the_exception_of_a_single_scene/dtf63hu/
p4704
sVsubreddit_type
p4705
Vpublic
p4706
sVauthor_flair_css_class
p4707
NsVstickied
p4708
I00
sVauthor
p4709
Vworldeditor
p4710
sVsubreddit
p4711
Vchangemyview
p4712
sVauthor_flair_text
p4713
V3\u2206
p4714
sVcreated_utc
p4715
I1517248473
sVsubreddit_id
p4716
Vt5_2w2s8
p4717
sVdistinguished
p4718
NsVparent_id
p4719
Vt3_7tu0ft
p4720
sVscore
p4721
I3
sVis_submitter
p4722
I00
sVgilded
p4723
I0
sVid
p4724
Vdtf63hu
p4725
sVcan_gild
p4726
I01
sVlink_id
p4727
Vt3_7tu0ft
p4728
sVretrieved_on
p4729
I1518397292
sVcontroversiality
p4730
I0
ssg644
(dp4731
g350
g2587
sg46
g0
(g604
g2
Ntp4732
Rp4733
(dp4734
g608
S'dtf63hu'
p4735
sg610
g611
sg612
(dp4736
Vbody
p4737
V[deleted]
p4738
sVedited
p4739
I00
sVpermalink
p4740
V/r/changemyview/comments/7tu0ft/cmv_spoilers_with_the_exception_of_a_single_scene/dtfdtoz/
p4741
sVsubreddit_type
p4742
Vpublic
p4743
sVauthor_flair_css_class
p4744
NsVstickied
p4745
I00
sVauthor
p4746
V[deleted]
p4747
sVsubreddit
p4748
Vchangemyview
p4749
sVauthor_flair_text
p4750
NsVcreated_utc
p4751
I1517255578
sVsubreddit_id
p4752
Vt5_2w2s8
p4753
sVdistinguished
p4754
NsVparent_id
p4755
Vt1_dtf63hu
p4756
sVscore
p4757
I6
sVis_submitter
p4758
I00
sVgilded
p4759
I0
sVid
p4760
Vdtfdtoz
p4761
sVcan_gild
p4762
I01
sVlink_id
p4763
Vt3_7tu0ft
p4764
sVretrieved_on
p4765
I1518401190
sVcontroversiality
p4766
I0
ssg644
(dp4767
g261
g3205
ssbsg221
g4257
ssbsg49
g3531
sg255
g0
(g604
g2
Ntp4768
Rp4769
(dp4770
g608
S'dtf8f5o'
p4771
sg610
g611
sg612
(dp4772
Vbody
p4773
V&gt;I'm just talking about the part I quoted about ethnic diversity.\u000a\u000aOkay, but gender is a component of why anti-SJW folks bash the films, so it's completely relevant. \u000a\u000a&gt;I'm pretty sure he is. Hispanic doesn't necessarily mean non-white. White = European, Mid-East, North African descent.\u000a\u000aHe's Guatemalan. Guatemala =/= European, Mid-East, North African. He's Hispanic, but he's also not Caucasian. \u000a\u000a&gt;I'm genuinely curious how you come to that conclusion. Even if we disregard Poe, almost all of the main characters are white. What other definitely non-white main characters are there besides Finn and maybe Rose?\u000a\u000aI stated this because you neglected gender, which is an element of diversity that is being attacked by the anti-SJW crowd when it comes to these films. \u000a\u000a 
p4774
sVedited
p4775
I00
sVpermalink
p4776
V/r/changemyview/comments/7tu0ft/cmv_spoilers_with_the_exception_of_a_single_scene/dtf95fo/
p4777
sVsubreddit_type
p4778
Vpublic
p4779
sVauthor_flair_css_class
p4780
NsVstickied
p4781
I00
sVauthor
p4782
Vworldeditor
p4783
sVsubreddit
p4784
Vchangemyview
p4785
sVauthor_flair_text
p4786
V3\u2206
p4787
sVcreated_utc
p4788
I1517251233
sVsubreddit_id
p4789
Vt5_2w2s8
p4790
sVdistinguished
p4791
NsVparent_id
p4792
Vt1_dtf8f5o
p4793
sVscore
p4794
I2
sVis_submitter
p4795
I00
sVgilded
p4796
I0
sVid
p4797
Vdtf95fo
p4798
sVcan_gild
p4799
I01
sVlink_id
p4800
Vt3_7tu0ft
p4801
sVretrieved_on
p4802
I1518398848
sVcontroversiality
p4803
I0
ssg644
(dp4804
g206
g2108
ssbsg222
g4330
sg50
g3786
sg367
g3350
sg153
g3822
sg458
g0
(g604
g2
Ntp4805
Rp4806
(dp4807
g608
S'7tu0ft'
p4808
sg610
g611
sg612
(dp4809
Vbody
p4810
V&gt; I think anyone that is complaining about the new Star Wars being "SJW propaganda" are really just uncomfortable with "too many" minorities being in a film.\u000a\u000aIf Disney announced tomorrow that they were firing the leadership at Lucasfilms, striking TLJ from the Canon, and re-releasing the Finn Character(with below fixes) in an all-new solo movie written in proper Star Wars 4-6 themes, in which he was the only visible human at *ALL*, I'd watch that movie.  I'd probably love that movie.\u000a\u000aWill Smith is an amazing actor, I watch him in almost everything he's in.\u000a\u000aI broke my copy of Meteor Man because I watched the tape too much.\u000a\u000aJohn Stewart is my favorite Green Lantern, and my vote for the next DC hero to be introduced to the canon.\u000a\u000aI grew up watching Bill Cosby, Family Matters and Fresh Prince.  Loved them.  Steve Urkel was a bit of a role model as I could actually identify with his nerdiness.\u000a\u000aI could continue this long diatribe establishing my pedigree for liking Black people in movies, but I think you get the point.\u000a\u000aAnyway, I *HATE* Finn's character as established in the movies at present.  First and foremost because "Finn, the backstory" and "Finn, the on-screen character" are *NOT* the same character.  The backstory has a cool hook, but suffers from being "Finn, the on-screen character"'s backstory, and thus, ends with him being a bumbling fool who they never properly establish as having a good reason to leave the Order.  On-screen Finn is meh, but I can tolerate a bumbling idiot if his backstory makes some sense.  Draxx from Guardians, for instance, who's entire race is just "like that".  Whatever.  They could've improved Finn *DRAMATICALLY* by divorcing his backstory from his on-screen character, but....they didn't, and the result functions about as well as gluing your sheath to your sword.\u000a\u000aI can do a similar breakdown for women if you'd like, but I think you get my point.
p4811
sVsubreddit_id
p4812
Vt5_2w2s8
p4813
sVsubreddit
p4814
Vchangemyview
p4815
sVid
p4816
Vdtfrda9
p4817
sVgilded
p4818
I0
sVstickied
p4819
I00
sVauthor
p4820
VGodskook
p4821
sVparent_id
p4822
Vt3_7tu0ft
p4823
sVscore
p4824
I1
sVretrieved_on
p4825
I1518407954
sVcontroversiality
p4826
I0
sVauthor_cakeday
p4827
I01
sVedited
p4828
I00
sVauthor_flair_css_class
p4829
NsVis_submitter
p4830
I00
sVcan_gild
p4831
I01
sVlink_id
p4832
Vt3_7tu0ft
p4833
sVpermalink
p4834
V/r/changemyview/comments/7tu0ft/cmv_spoilers_with_the_exception_of_a_single_scene/dtfrda9/
p4835
sVauthor_flair_text
p4836
V11\u2206
p4837
sVcreated_utc
p4838
I1517268697
sVsubreddit_type
p4839
Vpublic
p4840
sVdistinguished
p4841
Nssg644
Nsbsg496
g4185
sg467
g0
(g604
g2
Ntp4842
Rp4843
(dp4844
g608
S'7tu0ft'
p4845
sg610
g611
sg612
(dp4846
Vbody
p4847
V&gt;I think anyone that is complaining about the new Star Wars being "SJW propaganda" are really just uncomfortable with "too many" minorities being in a film.\u000a\u000aI agree that most of it is overblown, but there are some gripes that people have about the movie that I could see as being semi-legitimate.\u000a\u000aThe recent sequels (last two) have completely squandered the potential for including alien characters in the main cast. While I obviously can't tell provide evidence of the correlation, it does *feel* like the SWU is going for the most ethnically diverse cast reasonably possible, and as such is neglecting the inclusion of interesting alien characters.\u000a\u000aI also think some people have gripes about all of the prominent female characters (Rey, General Leah, Chu (I can't remember the new girl's name), the new Admiral) as being portrayed as perfectly moral, capable people while all of the flawed characters/villains are male. I'm not saying this is a valid concern, just some of the complaints people had.\u000a\u000a
p4848
sVedited
p4849
I00
sVpermalink
p4850
V/r/changemyview/comments/7tu0ft/cmv_spoilers_with_the_exception_of_a_single_scene/dtf5ulb/
p4851
sVsubreddit_type
p4852
Vpublic
p4853
sVauthor_flair_css_class
p4854
NsVstickied
p4855
I00
sVauthor
p4856
VUNRThrowAway
p4857
sVsubreddit
p4858
Vchangemyview
p4859
sVauthor_flair_text
p4860
V1\u2206
p4861
sVcreated_utc
p4862
I1517248247
sVsubreddit_id
p4863
Vt5_2w2s8
p4864
sVdistinguished
p4865
NsVparent_id
p4866
Vt3_7tu0ft
p4867
sVscore
p4868
I15
sVis_submitter
p4869
I00
sVgilded
p4870
I0
sVid
p4871
Vdtf5ulb
p4872
sVcan_gild
p4873
I01
sVlink_id
p4874
Vt3_7tu0ft
p4875
sVretrieved_on
p4876
I1518397168
sVcontroversiality
p4877
I0
ssg644
(dp4878
g351
g4220
sg204
g0
(g604
g2
Ntp4879
Rp4880
(dp4881
g608
S'dtf5ulb'
p4882
sg610
g611
sg612
(dp4883
Vbody
p4884
V&gt;  it does feel like the SWU is going for the most ethnically diverse cast reasonably possible\u000a\u000aI frequently see people say this online, but isn't it just Finn? And maybe Rose for half of one of the films if we want to count her as main cast. Versus Poe, Rey, Leia, Kylo, Luke, Han, etc. \u000a\u000aI just don't see how it can feel that way when like 75% of the main characters are white.\u000a
p4885
sVedited
p4886
I00
sVpermalink
p4887
V/r/changemyview/comments/7tu0ft/cmv_spoilers_with_the_exception_of_a_single_scene/dtf76ln/
p4888
sVsubreddit_type
p4889
Vpublic
p4890
sVauthor_flair_css_class
p4891
NsVstickied
p4892
I00
sVauthor
p4893
V4trezz
p4894
sVsubreddit
p4895
Vchangemyview
p4896
sVauthor_flair_text
p4897
V4\u2206
p4898
sVcreated_utc
p4899
I1517249457
sVsubreddit_id
p4900
Vt5_2w2s8
p4901
sVdistinguished
p4902
NsVparent_id
p4903
Vt1_dtf5ulb
p4904
sVscore
p4905
I4
sVis_submitter
p4906
I00
sVgilded
p4907
I0
sVid
p4908
Vdtf76ln
p4909
sVcan_gild
p4910
I01
sVlink_id
p4911
Vt3_7tu0ft
p4912
sVretrieved_on
p4913
I1518397869
sVcontroversiality
p4914
I0
ssg644
(dp4915
g254
g0
(g604
g2
Ntp4916
Rp4917
(dp4918
g608
S'dtf76ln'
p4919
sg610
g611
sg612
(dp4920
Vbody
p4921
VPoe's not white, and it's a gender issue as well, with the protagonists being female and the antagonists being male. \u000a\u000aIt's still a silly position, but it is a more diverse cast than you're indicating. 
p4922
sVedited
p4923
I00
sVpermalink
p4924
V/r/changemyview/comments/7tu0ft/cmv_spoilers_with_the_exception_of_a_single_scene/dtf7p7d/
p4925
sVsubreddit_type
p4926
Vpublic
p4927
sVauthor_flair_css_class
p4928
NsVstickied
p4929
I00
sVauthor
p4930
Vworldeditor
p4931
sVsubreddit
p4932
Vchangemyview
p4933
sVauthor_flair_text
p4934
V3\u2206
p4935
sVcreated_utc
p4936
I1517249923
sVsubreddit_id
p4937
Vt5_2w2s8
p4938
sVdistinguished
p4939
NsVparent_id
p4940
Vt1_dtf76ln
p4941
sVscore
p4942
I3
sVis_submitter
p4943
I00
sVgilded
p4944
I0
sVid
p4945
Vdtf7p7d
p4946
sVcan_gild
p4947
I01
sVlink_id
p4948
Vt3_7tu0ft
p4949
sVretrieved_on
p4950
I1518398124
sVcontroversiality
p4951
I0
ssg644
(dp4952
g205
g0
(g604
g2
Ntp4953
Rp4954
(dp4955
g608
S'dtf7p7d'
p4956
sg610
g611
sg612
(dp4957
Vbody
p4958
V&gt;  it's a gender issue as well, with the protagonists being female and the antagonists being male. \u000a\u000aI'm just talking about the part I quoted about ethnic diversity.\u000a\u000a&gt;Poe's not white\u000a\u000aI'm pretty sure he is. Hispanic doesn't necessarily mean non-white. White = European, Mid-East, North African descent. Hispanic = from a place culturally influenced by Spain. Maybe it's improper to speculate on race like this, but he looks white Hispanic to me.\u000a\u000a&gt;it is a more diverse cast than you're indicating\u000a\u000aI'm genuinely curious how you come to that conclusion. Even if we disregard Poe, almost all of the main characters are white. What other definitely non-white main characters are there besides Finn and maybe Rose?
p4959
sVedited
p4960
I1517250773
sVpermalink
p4961
V/r/changemyview/comments/7tu0ft/cmv_spoilers_with_the_exception_of_a_single_scene/dtf8f5o/
p4962
sVsubreddit_type
p4963
Vpublic
p4964
sVauthor_flair_css_class
p4965
NsVstickied
p4966
I00
sVauthor
p4967
V4trezz
p4968
sVsubreddit
p4969
Vchangemyview
p4970
sVauthor_flair_text
p4971
V4\u2206
p4972
sVcreated_utc
p4973
I1517250569
sVsubreddit_id
p4974
Vt5_2w2s8
p4975
sVdistinguished
p4976
NsVparent_id
p4977
Vt1_dtf7p7d
p4978
sVscore
p4979
I1
sVis_submitter
p4980
I00
sVgilded
p4981
I0
sVid
p4982
Vdtf8f5o
p4983
sVcan_gild
p4984
I01
sVlink_id
p4985
Vt3_7tu0ft
p4986
sVretrieved_on
p4987
I1518398483
sVcontroversiality
p4988
I0
ssg644
(dp4989
g255
g4769
ssbssbssbssbsg259
g2440
sg256
g2145
sg390
g2880
sg46
g4733
sg71
g0
(g604
g2
Ntp4990
Rp4991
(dp4992
g608
S'dtfs25l'
p4993
sg610
g611
sg612
(dp4994
Vbody
p4995
VConfirmed: 1 delta awarded to /u/Godskook ([8\u2206](/r/changemyview/wiki/user/Godskook)).\u000a\u000a^[DeltaSystemExplained](https://www.reddit.com/r/changemyview/wiki/deltasystem) ^| ^[Deltaboards](https://www.reddit.com/r/changemyview/wiki/deltaboards)\u000a[\u200b](HTTP://DB3PARAMSSTART\u000a{\u000a  "comment": "This is hidden text for DB3 to parse. Please contact the author of DB3 if you see this",\u000a  "issues": {},\u000a  "parentUserName": "Godskook"\u000a}\u000aDB3PARAMSEND)
p4996
sVedited
p4997
I00
sVpermalink
p4998
V/r/changemyview/comments/7tu0ft/cmv_spoilers_with_the_exception_of_a_single_scene/dtfs2oo/
p4999
sVsubreddit_type
p5000
Vpublic
p5001
sVauthor_flair_css_class
p5002
Vpoints
p5003
sVstickied
p5004
I00
sVauthor
p5005
VDeltaBot
p5006
sVsubreddit
p5007
Vchangemyview
p5008
sVauthor_flair_text
p5009
V\u221e\u2206
p5010
sVcreated_utc
p5011
I1517269402
sVsubreddit_id
p5012
Vt5_2w2s8
p5013
sVdistinguished
p5014
Vmoderator
p5015
sVparent_id
p5016
Vt1_dtfs25l
p5017
sVscore
p5018
I2
sVis_submitter
p5019
I00
sVgilded
p5020
I0
sVid
p5021
Vdtfs2oo
p5022
sVcan_gild
p5023
I01
sVlink_id
p5024
Vt3_7tu0ft
p5025
sVretrieved_on
p5026
I1518408299
sVcontroversiality
p5027
I0
ssg644
Nsbsg254
g4917
sg28
g2951
sg210
g2403
sg72
g0
(g604
g2
Ntp5028
Rp5029
(dp5030
g608
S'7tu0ft'
p5031
sg610
g611
sg612
(dp5032
Vbody
p5033
V/u/ZeusThunder369 (OP) has awarded 1 delta in this post.\u000a\u000aAll comments that earned deltas (from OP or other users) are listed [**here**](/r/DeltaLog/comments/7twopo), in /r/DeltaLog.\u000a\u000aPlease note that a change of view [doesn't necessarily mean a reversal](https://www.reddit.com/r/changemyview/wiki/index#wiki_what_is_a_.27view.27.3F), or that the conversation has ended.\u000a\u000a^[DeltaSystemExplained](https://www.reddit.com/r/changemyview/wiki/deltasystem) ^| ^[Deltaboards](https://www.reddit.com/r/changemyview/wiki/deltaboards)
p5034
sVedited
p5035
I00
sVpermalink
p5036
V/r/changemyview/comments/7tu0ft/cmv_spoilers_with_the_exception_of_a_single_scene/dtfs2px/
p5037
sVsubreddit_type
p5038
Vpublic
p5039
sVauthor_flair_css_class
p5040
Vpoints
p5041
sVstickied
p5042
I01
sVauthor
p5043
VDeltaBot
p5044
sVsubreddit
p5045
Vchangemyview
p5046
sVauthor_flair_text
p5047
V\u221e\u2206
p5048
sVcreated_utc
p5049
I1517269403
sVsubreddit_id
p5050
Vt5_2w2s8
p5051
sVdistinguished
p5052
Vmoderator
p5053
sVparent_id
p5054
Vt3_7tu0ft
p5055
sVscore
p5056
I1
sVis_submitter
p5057
I00
sVgilded
p5058
I0
sVid
p5059
Vdtfs2px
p5060
sVcan_gild
p5061
I01
sVlink_id
p5062
Vt3_7tu0ft
p5063
sVretrieved_on
p5064
I1518408299
sVcontroversiality
p5065
I0
ssg644
Nsbsg326
g0
(g604
g2
Ntp5066
Rp5067
(dp5068
g608
S'7tu0ft'
p5069
sg610
g611
sg612
(dp5070
Vbody
p5071
VWhat on earth is "social justice propaganda" if not something like putting lots of minorities into a movie?  Could you define it?
p5072
sVedited
p5073
I00
sVpermalink
p5074
V/r/changemyview/comments/7tu0ft/cmv_spoilers_with_the_exception_of_a_single_scene/dtf6ika/
p5075
sVsubreddit_type
p5076
Vpublic
p5077
sVauthor_flair_css_class
p5078
NsVstickied
p5079
I00
sVauthor
p5080
VPreacherJudge
p5081
sVsubreddit
p5082
Vchangemyview
p5083
sVauthor_flair_text
p5084
V126\u2206
p5085
sVcreated_utc
p5086
I1517248853
sVsubreddit_id
p5087
Vt5_2w2s8
p5088
sVdistinguished
p5089
NsVparent_id
p5090
Vt3_7tu0ft
p5091
sVscore
p5092
I1
sVis_submitter
p5093
I00
sVgilded
p5094
I0
sVid
p5095
Vdtf6ika
p5096
sVcan_gild
p5097
I01
sVlink_id
p5098
Vt3_7tu0ft
p5099
sVretrieved_on
p5100
I1518397537
sVcontroversiality
p5101
I0
ssg644
(dp5102
g353
g4513
ssbsg363
g2771
sg52
g2916
sg204
g4880
sg184
g0
(g604
g2
Ntp5103
Rp5104
(dp5105
g608
S'7tu0ft'
p5106
sg610
g611
sg612
(dp5107
Vbody
p5108
VThere is definitely some social justice warrior input into the film, basically all of the new characters were forced in some way. But the SJW implication to the film is not why it's a bad movie. It's more of an all around issue. 
p5109
sVedited
p5110
I00
sVpermalink
p5111
V/r/changemyview/comments/7tu0ft/cmv_spoilers_with_the_exception_of_a_single_scene/dtfddx7/
p5112
sVsubreddit_type
p5113
Vpublic
p5114
sVauthor_flair_css_class
p5115
NsVstickied
p5116
I00
sVauthor
p5117
Vfenderkruse
p5118
sVsubreddit
p5119
Vchangemyview
p5120
sVauthor_flair_text
p5121
V3\u2206
p5122
sVcreated_utc
p5123
I1517255167
sVsubreddit_id
p5124
Vt5_2w2s8
p5125
sVdistinguished
p5126
NsVparent_id
p5127
Vt3_7tu0ft
p5128
sVscore
p5129
I3
sVis_submitter
p5130
I00
sVgilded
p5131
I0
sVid
p5132
Vdtfddx7
p5133
sVcan_gild
p5134
I01
sVlink_id
p5135
Vt3_7tu0ft
p5136
sVretrieved_on
p5137
I1518400972
sVcontroversiality
p5138
I0
ssg644
(dp5139
g408
g0
(g604
g2
Ntp5140
Rp5141
(dp5142
g608
S'dtfddx7'
p5143
sg610
g611
sg612
(dp5144
Vbody
p5145
V&gt; There is definitely some social justice warrior input into the film, basically all of the new characters were forced in some way.\u000a\u000aForced as in "non-white"? They don't appear particularly forced, with some exceptions, so I'm not sure what you're talking about. 
p5146
sVedited
p5147
I00
sVpermalink
p5148
V/r/changemyview/comments/7tu0ft/cmv_spoilers_with_the_exception_of_a_single_scene/dtfevno/
p5149
sVsubreddit_type
p5150
Vpublic
p5151
sVauthor_flair_css_class
p5152
NsVstickied
p5153
I00
sVauthor
p5154
VMadplato
p5155
sVsubreddit
p5156
Vchangemyview
p5157
sVauthor_flair_text
p5158
V56\u2206
p5159
sVcreated_utc
p5160
I1517256573
sVsubreddit_id
p5161
Vt5_2w2s8
p5162
sVdistinguished
p5163
NsVparent_id
p5164
Vt1_dtfddx7
p5165
sVscore
p5166
I3
sVis_submitter
p5167
I00
sVgilded
p5168
I0
sVid
p5169
Vdtfevno
p5170
sVcan_gild
p5171
I01
sVlink_id
p5172
Vt3_7tu0ft
p5173
sVretrieved_on
p5174
I1518401717
sVcontroversiality
p5175
I0
ssg644
(dp5176
g185
g0
(g604
g2
Ntp5177
Rp5178
(dp5179
g608
S'dtfevno'
p5180
sg610
g611
sg612
(dp5181
Vbody
p5182
VI would say the characters were forced into situations with the intention of learning something specific. Like poe learning that he needed to trust his boss, who happened to be a powerful woman. There is a million other ways to portray that lesson for Poe and make it really meaningful. But they, for some reason had to insert the purple hair lady and had her keep the plan a secret from him.... For some reason.\u000a\u000aThat part could have been so much better but it was so obviously held back in order to input this specific character doing a specific thing. (purple hair lady being right and being a martyr). They could've had akbar mentor him after he made the mistake with the bombers or something cool with existing characters that needed to be fleshed out. But no. We got purple hair lady being a shady boss. Completely forced.\u000a\u000aThere is also several other reasons like this, some of them done right, some done just as bad. Like the introduction to Rose's character is the best I've seen in the new star wars stuff, apart from Finn himself. Too bad the rest of her scenes are trash. 
p5183
sVedited
p5184
I00
sVpermalink
p5185
V/r/changemyview/comments/7tu0ft/cmv_spoilers_with_the_exception_of_a_single_scene/dtffkpn/
p5186
sVsubreddit_type
p5187
Vpublic
p5188
sVauthor_flair_css_class
p5189
NsVstickied
p5190
I00
sVauthor
p5191
Vfenderkruse
p5192
sVsubreddit
p5193
Vchangemyview
p5194
sVauthor_flair_text
p5195
V3\u2206
p5196
sVcreated_utc
p5197
I1517257224
sVsubreddit_id
p5198
Vt5_2w2s8
p5199
sVdistinguished
p5200
NsVparent_id
p5201
Vt1_dtfevno
p5202
sVscore
p5203
I2
sVis_submitter
p5204
I00
sVgilded
p5205
I0
sVid
p5206
Vdtffkpn
p5207
sVcan_gild
p5208
I01
sVlink_id
p5209
Vt3_7tu0ft
p5210
sVretrieved_on
p5211
I1518402061
sVcontroversiality
p5212
I0
ssg644
(dp5213
g570
g3242
ssbssbssbsg360
g4077
sg377
g4150
sg205
g4954
sg209
g2256
sg212
g2551
sg332
g2036
sg469
g2219
sg368
g0
(g604
g2
Ntp5214
Rp5215
(dp5216
g608
S'dtfpz0b'
p5217
sg610
g611
sg612
(dp5218
Vbody
p5219
V!Delta okay, that's a new angle I hadn't considered at all. I read many articles *complaining* about it in the movie, and didn't agree with a single point they raised in 6 articles.\u000a\u000aI hadn't thought about looking for articles *praising* the messaging though. It's hard to argue it isn't filled with SJW messages when SJWs are praising its SJW messages...
p5220
sVedited
p5221
I00
sVpermalink
p5222
V/r/changemyview/comments/7tu0ft/cmv_spoilers_with_the_exception_of_a_single_scene/dtfs25l/
p5223
sVsubreddit_type
p5224
Vpublic
p5225
sVauthor_flair_css_class
p5226
NsVstickied
p5227
I00
sVauthor
p5228
VZeusThunder369
p5229
sVsubreddit
p5230
Vchangemyview
p5231
sVauthor_flair_text
p5232
V7\u2206
p5233
sVcreated_utc
p5234
I1517269387
sVsubreddit_id
p5235
Vt5_2w2s8
p5236
sVdistinguished
p5237
NsVparent_id
p5238
Vt1_dtfpz0b
p5239
sVscore
p5240
I5
sVis_submitter
p5241
I01
sVgilded
p5242
I0
sVid
p5243
Vdtfs25l
p5244
sVcan_gild
p5245
I01
sVlink_id
p5246
Vt3_7tu0ft
p5247
sVretrieved_on
p5248
I1518408292
sVcontroversiality
p5249
I0
ssg644
(dp5250
g71
g4991
ssbsg327
g4550
sg591
g3494
sg359
g4113
sg457
g0
(g604
g2
Ntp5251
Rp5252
(dp5253
g608
S'7tu0ft'
p5254
sg610
g611
sg612
(dp5255
Vbody
p5256
VLet's see what the SJWs think about it, shall we?\u000a\u000ahttps://moneyish.com/ish/why-the-last-jedi-proves-that-star-wars-future-is-female/\u000a\u000a&gt; If the Universe was run by women, The Last Jedi's clear subtext runs, things would be kinder, more humane, better organised and a lot more peaceful. What a perfect tribute to Carrie Fisher and what a wonderful message in 2017 for young women, at a time when it's becoming clear that the film industry has long been stacked against them.\u000a\u000ahttp://www.digitalspy.com/movies/star-wars/feature/a845869/star-wars-the-last-jedi-feminist-feminism/\u000a\u000ahttps://www.newstatesman.com/culture/film/2017/12/last-jedi-first-properly-feminist-star-wars\u000a\u000a&gt; This message\u2014women being largely right, and men being mostly wrong\u2014extends to most but not all aspects of The Last Jedi. Rose Tico was certainly right to insist that Finn stay and fight, and right again to save him when attempts to needlessly sacrifice himself. Rey and Leia were right that Luke should join the resistance.\u000a\u000ahttps://www.vanityfair.com/hollywood/2017/12/star-wars-last-jedi-laura-dern-admiral-holdo-listen-to-women\u000a\u000a&gt; But The Last Jedi isn't just a film featuring a cast of complex female characters; it weaves multiple stories in which men not only learn to listen to women but also suffer actual consequences when they don't. \u000a\u000ahttp://www.mtv.com/news/3053737/star-wars-last-jedi-feminist/\u000a\u000aYeah....regardless of how you like the movie, I'm going to say that it was definitely filled to the brime with messages that one might call "SJW propaganda".
p5257
sVsubreddit_id
p5258
Vt5_2w2s8
p5259
sVsubreddit
p5260
Vchangemyview
p5261
sVid
p5262
Vdtfpz0b
p5263
sVgilded
p5264
I0
sVstickied
p5265
I00
sVauthor
p5266
VGodskook
p5267
sVparent_id
p5268
Vt3_7tu0ft
p5269
sVscore
p5270
I10
sVretrieved_on
p5271
I1518407267
sVcontroversiality
p5272
I0
sVauthor_cakeday
p5273
I01
sVedited
p5274
I00
sVauthor_flair_css_class
p5275
NsVis_submitter
p5276
I00
sVcan_gild
p5277
I01
sVlink_id
p5278
Vt3_7tu0ft
p5279
sVpermalink
p5280
V/r/changemyview/comments/7tu0ft/cmv_spoilers_with_the_exception_of_a_single_scene/dtfpz0b/
p5281
sVauthor_flair_text
p5282
V11\u2206
p5283
sVcreated_utc
p5284
I1517267254
sVsubreddit_type
p5285
Vpublic
p5286
sVdistinguished
p5287
Nssg644
(dp5288
g368
g5215
ssbsg364
g1851
sg252
g2624
sg361
g3749
sg356
g4004
sg257
g2292
sg29
g3024
sg45
g3713
sg207
g2182
sg387
g4367
sg355
g0
(g604
g2
Ntp5289
Rp5290
(dp5291
g608
S'dtf6zue'
p5292
sg610
g611
sg612
(dp5293
Vbody
p5294
VWhat about those scenes is inherently SJW? Or even political?\u000a\u000a
p5295
sVedited
p5296
I00
sVpermalink
p5297
V/r/changemyview/comments/7tu0ft/cmv_spoilers_with_the_exception_of_a_single_scene/dtf7shv/
p5298
sVsubreddit_type
p5299
Vpublic
p5300
sVauthor_flair_css_class
p5301
NsVstickied
p5302
I00
sVauthor
p5303
VZeusThunder369
p5304
sVsubreddit
p5305
Vchangemyview
p5306
sVauthor_flair_text
p5307
V7\u2206
p5308
sVcreated_utc
p5309
I1517250005
sVsubreddit_id
p5310
Vt5_2w2s8
p5311
sVdistinguished
p5312
NsVparent_id
p5313
Vt1_dtf6zue
p5314
sVscore
p5315
I11
sVis_submitter
p5316
I01
sVgilded
p5317
I0
sVid
p5318
Vdtf7shv
p5319
sVcan_gild
p5320
I01
sVlink_id
p5321
Vt3_7tu0ft
p5322
sVretrieved_on
p5323
I1518398166
sVcontroversiality
p5324
I0
ssg644
(dp5325
g590
g3386
ssbsg53
g3858
sg358
g3640
sg589
g0
(g604
g2
Ntp5326
Rp5327
(dp5328
g608
S'7tu0ft'
p5329
sg610
g611
sg612
(dp5330
Vbody
p5331
VIMO, what you perceive as social commentary depends on what you bring into the movie with you.  For me, there were two scenes that were a bit jarring:\u000a\u000a* Rey saying she was cleaning her blaster and it went off.\u000a* Yoda asking Luke if he'd ever read the sacred texts.\u000a\u000aIt sounds like you didn't even notice those two, but to me they sounded like intentional jabs.  I'd imagine to the Rian Johnson they're just little quips that shouldn't be read into.
p5332
sVedited
p5333
I00
sVpermalink
p5334
V/r/changemyview/comments/7tu0ft/cmv_spoilers_with_the_exception_of_a_single_scene/dtf6zue/
p5335
sVsubreddit_type
p5336
Vpublic
p5337
sVauthor_flair_css_class
p5338
NsVstickied
p5339
I00
sVauthor
p5340
Visoldasballs
p5341
sVsubreddit
p5342
Vchangemyview
p5343
sVauthor_flair_text
p5344
V1\u2206
p5345
sVcreated_utc
p5346
I1517249287
sVsubreddit_id
p5347
Vt5_2w2s8
p5348
sVdistinguished
p5349
NsVparent_id
p5350
Vt3_7tu0ft
p5351
sVscore
p5352
I9
sVis_submitter
p5353
I00
sVgilded
p5354
I0
sVid
p5355
Vdtf6zue
p5356
sVcan_gild
p5357
I01
sVlink_id
p5358
Vt3_7tu0ft
p5359
sVretrieved_on
p5360
I1518397778
sVcontroversiality
p5361
I0
ssg644
(dp5362
g355
g5290
ssbsg386
g4294
sg354
g3931
sg18
g3968
sg331
g1962
sg62
g2734
sg185
g5178
sg223
g4403
sg298
g3677
sg328
g4624
sg47
g3423
sg408
g5141
sg175
g2072
ssg432
(dp5363
g163
g0
(g604
g2
Ntp5364
Rp5365
(dp5366
g608
S'dte3jw7'
p5367
sg610
g611
sg612
(dp5368
Vbody
p5369
VIs the boot order set to boot to your proper HDD first? \u000a\u000aDoes it get into Windows recovery at least?
p5370
sVedited
p5371
I00
sVpermalink
p5372
V/r/techsupport/comments/7tktlm/pc_screen_black_need_help/dte4mxh/
p5373
sVsubreddit_type
p5374
Vpublic
p5375
sVauthor_flair_css_class
p5376
NsVstickied
p5377
I00
sVauthor
p5378
VCaptainPassword
p5379
sVsubreddit
p5380
Vtechsupport
p5381
sVauthor_flair_text
p5382
NsVcreated_utc
p5383
I1517191246
sVsubreddit_id
p5384
Vt5_2qioo
p5385
sVdistinguished
p5386
NsVparent_id
p5387
Vt1_dte3jw7
p5388
sVscore
p5389
I1
sVis_submitter
p5390
I00
sVgilded
p5391
I0
sVid
p5392
Vdte4mxh
p5393
sVcan_gild
p5394
I01
sVlink_id
p5395
Vt3_7tktlm
p5396
sVretrieved_on
p5397
I1518378763
sVcontroversiality
p5398
I0
ssg644
(dp5399
g438
g0
(g604
g2
Ntp5400
Rp5401
(dp5402
g608
S'dte4mxh'
p5403
sg610
g611
sg612
(dp5404
Vbody
p5405
Vit also says that it's starting automatic repair but then the screen just goes completely blank.
p5406
sVedited
p5407
I00
sVpermalink
p5408
V/r/techsupport/comments/7tktlm/pc_screen_black_need_help/dte57xh/
p5409
sVsubreddit_type
p5410
Vpublic
p5411
sVauthor_flair_css_class
p5412
NsVstickied
p5413
I00
sVauthor
p5414
Vkita5521
p5415
sVsubreddit
p5416
Vtechsupport
p5417
sVauthor_flair_text
p5418
NsVcreated_utc
p5419
I1517191911
sVsubreddit_id
p5420
Vt5_2qioo
p5421
sVdistinguished
p5422
NsVparent_id
p5423
Vt1_dte4mxh
p5424
sVscore
p5425
I1
sVis_submitter
p5426
I01
sVgilded
p5427
I0
sVid
p5428
Vdte57xh
p5429
sVcan_gild
p5430
I01
sVlink_id
p5431
Vt3_7tktlm
p5432
sVretrieved_on
p5433
I1518379045
sVcontroversiality
p5434
I0
ssg644
(dp5435
g165
g0
(g604
g2
Ntp5436
Rp5437
(dp5438
g608
S'dte57xh'
p5439
sg610
g611
sg612
(dp5440
Vbody
p5441
VAutomatic repair implies a problem with the windows installation.\u000aIt can even just be from shutting down incorrectly and it just needs to run. You can force it on while holding power button still to power it off a few more times to try get auto repair to get its shit together or recovery or safe mode options to pop up.
p5442
sVedited
p5443
I1517200766
sVpermalink
p5444
V/r/techsupport/comments/7tktlm/pc_screen_black_need_help/dte67xt/
p5445
sVsubreddit_type
p5446
Vpublic
p5447
sVauthor_flair_css_class
p5448
NsVstickied
p5449
I00
sVauthor
p5450
VCaptainPassword
p5451
sVsubreddit
p5452
Vtechsupport
p5453
sVauthor_flair_text
p5454
NsVcreated_utc
p5455
I1517193080
sVsubreddit_id
p5456
Vt5_2qioo
p5457
sVdistinguished
p5458
NsVparent_id
p5459
Vt1_dte57xh
p5460
sVscore
p5461
I1
sVis_submitter
p5462
I00
sVgilded
p5463
I0
sVid
p5464
Vdte67xt
p5465
sVcan_gild
p5466
I01
sVlink_id
p5467
Vt3_7tktlm
p5468
sVretrieved_on
p5469
I1518379534
sVcontroversiality
p5470
I0
ssg644
Nsbssbsg437
g0
(g604
g2
Ntp5471
Rp5472
(dp5473
g608
S'dte4mxh'
p5474
sg610
g611
sg612
(dp5475
Vbody
p5476
Vthe first boot option is windows boot manager and no I do not see a recovery screen. 
p5477
sVedited
p5478
I00
sVpermalink
p5479
V/r/techsupport/comments/7tktlm/pc_screen_black_need_help/dte5468/
p5480
sVsubreddit_type
p5481
Vpublic
p5482
sVauthor_flair_css_class
p5483
NsVstickied
p5484
I00
sVauthor
p5485
Vkita5521
p5486
sVsubreddit
p5487
Vtechsupport
p5488
sVauthor_flair_text
p5489
NsVcreated_utc
p5490
I1517191794
sVsubreddit_id
p5491
Vt5_2qioo
p5492
sVdistinguished
p5493
NsVparent_id
p5494
Vt1_dte4mxh
p5495
sVscore
p5496
I1
sVis_submitter
p5497
I01
sVgilded
p5498
I0
sVid
p5499
Vdte5468
p5500
sVcan_gild
p5501
I01
sVlink_id
p5502
Vt3_7tktlm
p5503
sVretrieved_on
p5504
I1518378994
sVcontroversiality
p5505
I0
ssg644
(dp5506
g164
g0
(g604
g2
Ntp5507
Rp5508
(dp5509
g608
S'dte5468'
p5510
sg610
g611
sg612
(dp5511
Vbody
p5512
VBut the BIOS does acknowledge there's a drive there yeah and no SATA cables came loose to the drive when you were installing the CMOS? Is it set to boot UEFI?\u000a\u000aAside from an incorrect BIOS setting you may additionally have a problem with the windows installation itself\u000a\u000a\u000a\u000a
p5513
sVedited
p5514
I00
sVpermalink
p5515
V/r/techsupport/comments/7tktlm/pc_screen_black_need_help/dte5jyr/
p5516
sVsubreddit_type
p5517
Vpublic
p5518
sVauthor_flair_css_class
p5519
NsVstickied
p5520
I00
sVauthor
p5521
VCaptainPassword
p5522
sVsubreddit
p5523
Vtechsupport
p5524
sVauthor_flair_text
p5525
NsVcreated_utc
p5526
I1517192300
sVsubreddit_id
p5527
Vt5_2qioo
p5528
sVdistinguished
p5529
NsVparent_id
p5530
Vt1_dte5468
p5531
sVscore
p5532
I1
sVis_submitter
p5533
I00
sVgilded
p5534
I0
sVid
p5535
Vdte5jyr
p5536
sVcan_gild
p5537
I01
sVlink_id
p5538
Vt3_7tktlm
p5539
sVretrieved_on
p5540
I1518379207
sVcontroversiality
p5541
I0
ssg644
(dp5542
g439
g0
(g604
g2
Ntp5543
Rp5544
(dp5545
g608
S'dte5jyr'
p5546
sg610
g611
sg612
(dp5547
Vbody
p5548
Vthe computer recognizes the hard drive and I reconnected all sata cables from the hard drive to the motherboard... and I set the boot to uefi and it still did not work...
p5549
sVedited
p5550
I00
sVpermalink
p5551
V/r/techsupport/comments/7tktlm/pc_screen_black_need_help/dte7nxl/
p5552
sVsubreddit_type
p5553
Vpublic
p5554
sVauthor_flair_css_class
p5555
NsVstickied
p5556
I00
sVauthor
p5557
Vkita5521
p5558
sVsubreddit
p5559
Vtechsupport
p5560
sVauthor_flair_text
p5561
NsVcreated_utc
p5562
I1517194793
sVsubreddit_id
p5563
Vt5_2qioo
p5564
sVdistinguished
p5565
NsVparent_id
p5566
Vt1_dte5jyr
p5567
sVscore
p5568
I1
sVis_submitter
p5569
I01
sVgilded
p5570
I0
sVid
p5571
Vdte7nxl
p5572
sVcan_gild
p5573
I01
sVlink_id
p5574
Vt3_7tktlm
p5575
sVretrieved_on
p5576
I1518380242
sVcontroversiality
p5577
I0
ssg644
(dp5578
g166
g0
(g604
g2
Ntp5579
Rp5580
(dp5581
g608
S'dte7nxl'
p5582
sg610
g611
sg612
(dp5583
Vbody
p5584
VAnd its windows 10 yeah? If you have access to a usb or cd with a Windows 10 .iso on it you can boot to it and try repairs from there. Worst case scenario re-os provided the HDD tests ok. \u000a\u000aYou will need to use a working computer for recovery media creation to get yourself a usb though if you don't have one.
p5585
sVedited
p5586
I00
sVpermalink
p5587
V/r/techsupport/comments/7tktlm/pc_screen_black_need_help/dteabn5/
p5588
sVsubreddit_type
p5589
Vpublic
p5590
sVauthor_flair_css_class
p5591
NsVstickied
p5592
I00
sVauthor
p5593
VCaptainPassword
p5594
sVsubreddit
p5595
Vtechsupport
p5596
sVauthor_flair_text
p5597
NsVcreated_utc
p5598
I1517197871
sVsubreddit_id
p5599
Vt5_2qioo
p5600
sVdistinguished
p5601
NsVparent_id
p5602
Vt1_dte7nxl
p5603
sVscore
p5604
I1
sVis_submitter
p5605
I00
sVgilded
p5606
I0
sVid
p5607
Vdteabn5
p5608
sVcan_gild
p5609
I01
sVlink_id
p5610
Vt3_7tktlm
p5611
sVretrieved_on
p5612
I1518381531
sVcontroversiality
p5613
I0
ssg644
Nsbssbssbssbssbsg166
g5580
sg165
g5437
sg439
g5544
sg437
g5472
sg164
g5508
sg435
g0
(g604
g2
Ntp5614
Rp5615
(dp5616
g608
S'dtdocrw'
p5617
sg610
g611
sg612
(dp5618
Vbody
p5619
VNo sadly. I'm going to buy a cmos battery 3.0v to see if it'll reset my bios and hopefully boot my system. I'll keep you updated. Thanks for the help once again 
p5620
sVedited
p5621
I00
sVpermalink
p5622
V/r/techsupport/comments/7tktlm/pc_screen_black_need_help/dtdy7ha/
p5623
sVsubreddit_type
p5624
Vpublic
p5625
sVauthor_flair_css_class
p5626
NsVstickied
p5627
I00
sVauthor
p5628
Vkita5521
p5629
sVsubreddit
p5630
Vtechsupport
p5631
sVauthor_flair_text
p5632
NsVcreated_utc
p5633
I1517184000
sVsubreddit_id
p5634
Vt5_2qioo
p5635
sVdistinguished
p5636
NsVparent_id
p5637
Vt1_dtdocrw
p5638
sVscore
p5639
I1
sVis_submitter
p5640
I01
sVgilded
p5641
I0
sVid
p5642
Vdtdy7ha
p5643
sVcan_gild
p5644
I01
sVlink_id
p5645
Vt3_7tktlm
p5646
sVretrieved_on
p5647
I1518375607
sVcontroversiality
p5648
I0
ssg644
Nsbsg436
g0
(g604
g2
Ntp5649
Rp5650
(dp5651
g608
S'dtdocrw'
p5652
sg610
g611
sg612
(dp5653
Vbody
p5654
VSo now I put the battery in and I can get to the bios screen ... I get an error screen that says UNMOUNTABLE BOOT VOLUME...
p5655
sVedited
p5656
I00
sVpermalink
p5657
V/r/techsupport/comments/7tktlm/pc_screen_black_need_help/dte3jw7/
p5658
sVsubreddit_type
p5659
Vpublic
p5660
sVauthor_flair_css_class
p5661
NsVstickied
p5662
I00
sVauthor
p5663
Vkita5521
p5664
sVsubreddit
p5665
Vtechsupport
p5666
sVauthor_flair_text
p5667
NsVcreated_utc
p5668
I1517190045
sVsubreddit_id
p5669
Vt5_2qioo
p5670
sVdistinguished
p5671
NsVparent_id
p5672
Vt1_dtdocrw
p5673
sVscore
p5674
I1
sVis_submitter
p5675
I01
sVgilded
p5676
I0
sVid
p5677
Vdte3jw7
p5678
sVcan_gild
p5679
I01
sVlink_id
p5680
Vt3_7tktlm
p5681
sVretrieved_on
p5682
I1518378233
sVcontroversiality
p5683
I0
ssg644
(dp5684
g163
g5365
ssbsg438
g5401
sssS'subReddit'
p5685
(dp5686
g237
c__builtin__
set
p5687
((lp5688
g239
atp5689
Rp5690
sg430
g5687
((lp5691
g432
atp5692
Rp5693
sg462
g5687
((lp5694
g464
atp5695
Rp5696
ssb.